(dp0
S'trigger'
p1
S'31'
p2
sS'matrix'
p3
(dp4
(I7
I3
tp5
Ns(I6
I9
tp6
Ns(I12
I1
tp7
Ns(I16
I6
tp8
Ns(I16
I9
tp9
Ns(I14
I4
tp10
Ns(I13
I4
tp11
Ns(I19
I4
tp12
Ns(I18
I4
tp13
Ns(I0
I7
tp14
Ns(I15
I1
tp15
Ns(I21
I9
tp16
Ns(I20
I7
tp17
Ns(I1
I6
tp18
Ns(I21
I6
tp19
Ns(I3
I7
tp20
Ns(I2
I5
tp21
Ns(I8
I5
tp22
Ns(I5
I8
tp23
Ns(I4
I0
tp24
Ns(I10
I8
tp25
Ns(I9
I0
tp26
Ns(I6
I7
tp27
Ns(I5
I5
tp28
Ns(I11
I5
tp29
Ns(I10
I7
tp30
Ns(I16
I3
tp31
Ns(I17
I7
tp32
Ns(I12
I6
tp33
Ns(I8
I8
tp34
Ns(I17
I2
tp35
Ns(I14
I1
tp36
Ns(I13
I7
tp37
Ns(I20
I9
tp38
Ns(I19
I3
tp39
Ns(I18
I9
tp40
Ns(I0
I4
tp41
Ns(I15
I4
tp42
Ns(I20
I4
tp43
Ns(I1
I1
tp44
Ns(I3
I2
tp45
Ns(I2
I6
tp46
Ns(I8
I2
tp47
Ns(I4
I5
tp48
Ns(I9
I3
tp49
Ns(I6
I0
tp50
Ns(I11
I0
tp51
Ns(I7
I5
tp52
Ns(I7
I0
tp53
Ns(I14
I2
tp54
Ns(I0
I1
tp55
Ns(I3
I1
tp56
Ns(I9
I9
tp57
Ns(I7
I8
tp58
Ns(I14
I8
tp59
Ns(I13
I0
tp60
Ns(I12
I8
tp61
Ns(I19
I8
tp62
Ns(I18
I0
tp63
Ns(I17
I8
tp64
Ns(I20
I3
tp65
Ns(I21
I2
tp66
Ns(I2
I1
tp67
Ns(I8
I9
tp68
Ns(I9
I4
tp69
Ns(I5
I1
tp70
Ns(I10
I3
tp71
Ns(I7
I2
tp72
Ns(I12
I2
tp73
Ns(I17
I6
tp74
Ns(I14
I5
tp75
Ns(I13
I3
tp76
Ns(I19
I7
tp77
Ns(I18
I5
tp78
Ns(I7
I1
tp79
Ns(I15
I0
tp80
Ns(I21
I8
tp81
Ns(I20
I0
tp82
Ns(I1
I5
tp83
Ns(I21
I5
tp84
Ns(I3
I6
tp85
Ns(I2
I2
tp86
Ns(I8
I6
tp87
Ns(I4
I1
tp88
Ns(I10
I9
tp89
Ns(I9
I7
tp90
Ns(I6
I4
tp91
Ns(I5
I4
tp92
Ns(I11
I4
tp93
Ns(I10
I4
tp94
Ns(I16
I4
tp95
Ns(I12
I7
tp96
Ns(I11
I9
tp97
Ns(I17
I1
tp98
Ns(I14
I6
tp99
Ns(I13
I6
tp100
Ns(I19
I2
tp101
Ns(I18
I6
tp102
Ns(I0
I5
tp103
Ns(I15
I7
tp104
Ns(I20
I5
tp105
Ns(I1
I0
tp106
Ns(I0
I8
tp107
Ns(I3
I5
tp108
Ns(I2
I7
tp109
Ns(I8
I3
tp110
Ns(I4
I6
tp111
Ns(I9
I2
tp112
Ns(I6
I1
tp113
Ns(I5
I7
tp114
Ns(I11
I3
tp115
Ns(I7
I4
tp116
Ns(I12
I4
tp117
Ns(I15
I9
tp118
Ns(I14
I3
tp119
Ns(I13
I9
tp120
Ns(I19
I1
tp121
Ns(I7
I6
tp122
Ns(I1
I3
tp123
Ns(I4
I8
tp124
Ns(I3
I0
tp125
Ns(I2
I8
tp126
Ns(I9
I8
tp127
Ns(I8
I0
tp128
Ns(I6
I2
tp129
Ns(I14
I9
tp130
Ns(I12
I9
tp131
Ns(I18
I1
tp132
Ns(I21
I1
tp133
Ns(I5
I0
tp134
Ns(I10
I0
tp135
Ns(I12
I3
tp136
Ns(I17
I5
tp137
Ns(I13
I2
tp138
Ns(I19
I6
tp139
Ns(I18
I2
tp140
Ns(I15
I3
tp141
Ns(I20
I1
tp142
Ns(I1
I4
tp143
Ns(I7
I7
tp144
Ns(I21
I4
tp145
Ns(I3
I9
tp146
Ns(I2
I3
tp147
Ns(I1
I9
tp148
Ns(I8
I7
tp149
Ns(I4
I2
tp150
Ns(I9
I6
tp151
Ns(I6
I5
tp152
Ns(I5
I3
tp153
Ns(I11
I7
tp154
Ns(I10
I5
tp155
Ns(I16
I5
tp156
Ns(I6
I8
tp157
Ns(I12
I0
tp158
Ns(I11
I8
tp159
Ns(I17
I0
tp160
Ns(I16
I8
tp161
Ns(I14
I7
tp162
Ns(I13
I5
tp163
Ns(I19
I5
tp164
Ns(I18
I7
tp165
Ns(I0
I6
tp166
Ns(I15
I6
tp167
Ns(I20
I6
tp168
Ns(I1
I7
tp169
Ns(I0
I9
tp170
Ns(I21
I7
tp171
Ns(I3
I4
tp172
Ns(I2
I4
tp173
Ns(I8
I4
tp174
Ns(I5
I9
tp175
Ns(I4
I7
tp176
Ns(I9
I1
tp177
Ns(I6
I6
tp178
Ns(I5
I6
tp179
Ns(I11
I2
tp180
Ns(I10
I6
tp181
Ns(I16
I2
tp182
Ns(I12
I5
tp183
Ns(I17
I3
tp184
Ns(I15
I8
tp185
Ns(I14
I0
tp186
Ns(I13
I8
tp187
Ns(I20
I8
tp188
Ns(I19
I0
tp189
Ns(I18
I8
tp190
Ns(I0
I3
tp191
Ns(I15
I5
tp192
Ns(I1
I2
tp193
Ns(I16
I1
tp194
Ns(I4
I9
tp195
Ns(I3
I3
tp196
Ns(I2
I9
tp197
Ns(I8
I1
tp198
Ns(I4
I4
tp199
Ns(I6
I3
tp200
Ns(I11
I1
tp201
Ns(I16
I7
tp202
Ns(I21
I3
tp203
Ns(I0
I0
tp204
Ns(I21
I0
tp205
Ns(I10
I1
tp206
Ns(I17
I4
tp207
Ns(I7
I9
tp208
Ns(I13
I1
tp209
Ns(I19
I9
tp210
Ns(I18
I3
tp211
Ns(I17
I9
tp212
Ns(I15
I2
tp213
Ns(I20
I2
tp214
Ns(I0
I2
tp215
Ns(I3
I8
tp216
Ns(I2
I0
tp217
Ns(I1
I8
tp218
Ns(I16
I0
tp219
Ns(I4
I3
tp220
Ns(I9
I5
tp221
Ns(I5
I2
tp222
Ns(I11
I6
tp223
Ns(I10
I2
tp224
NssS'time'
p225
F1390395089.711
s.(dp0
S'trigger'
p1
S'9'
p2
sS'matrix'
p3
(dp4
(I7
I3
tp5
Ns(I6
I9
tp6
Ns(I12
I1
tp7
Ns(I16
I6
tp8
Ns(I16
I9
tp9
Ns(I14
I4
tp10
Ns(I13
I4
tp11
Ns(I19
I4
tp12
Ns(I18
I4
tp13
Ns(I0
I7
tp14
Ns(I15
I1
tp15
Ns(I21
I9
tp16
Ns(I20
I7
tp17
Ns(I1
I6
tp18
Ns(I21
I6
tp19
Ns(I3
I7
tp20
Ns(I2
I5
tp21
Ns(I8
I5
tp22
Ns(I5
I8
tp23
Ns(I4
I0
tp24
Ns(I10
I8
tp25
Ns(I9
I0
tp26
Ns(I6
I7
tp27
Ns(I5
I5
tp28
Ns(I11
I5
tp29
Ns(I10
I7
tp30
Ns(I16
I3
tp31
Ns(I17
I7
tp32
Ns(I12
I6
tp33
Ns(I8
I8
tp34
Ns(I17
I2
tp35
Ns(I14
I1
tp36
Ns(I13
I7
tp37
Ns(I20
I9
tp38
Ns(I19
I3
tp39
Ns(I18
I9
tp40
Ns(I0
I4
tp41
Ns(I15
I4
tp42
Ns(I20
I4
tp43
Ns(I1
I1
tp44
Ns(I3
I2
tp45
Ns(I2
I6
tp46
Ns(I8
I2
tp47
Ns(I4
I5
tp48
Ns(I9
I3
tp49
Ns(I6
I0
tp50
Ns(I11
I0
tp51
Ns(I7
I5
tp52
Ns(I7
I0
tp53
Ns(I14
I2
tp54
Ns(I0
I1
tp55
Ns(I3
I1
tp56
Ns(I9
I9
tp57
Ns(I7
I8
tp58
Ns(I14
I8
tp59
Ns(I13
I0
tp60
Ns(I12
I8
tp61
Ns(I19
I8
tp62
Ns(I18
I0
tp63
Ns(I17
I8
tp64
Ns(I20
I3
tp65
Ns(I21
I2
tp66
Ns(I2
I1
tp67
Ns(I8
I9
tp68
Ns(I9
I4
tp69
Ns(I5
I1
tp70
Ns(I10
I3
tp71
Ns(I7
I2
tp72
Ns(I12
I2
tp73
Ns(I17
I6
tp74
Ns(I14
I5
tp75
Ns(I13
I3
tp76
Ns(I19
I7
tp77
Ns(I18
I5
tp78
Ns(I7
I1
tp79
Ns(I15
I0
tp80
Ns(I21
I8
tp81
Ns(I20
I0
tp82
Ns(I1
I5
tp83
Ns(I21
I5
tp84
Ns(I3
I6
tp85
Ns(I2
I2
tp86
Ns(I8
I6
tp87
Ns(I4
I1
tp88
Ns(I10
I9
tp89
Ns(I9
I7
tp90
Ns(I6
I4
tp91
Ns(I5
I4
tp92
Ns(I11
I4
tp93
Ns(I10
I4
tp94
Ns(I16
I4
tp95
Ns(I12
I7
tp96
Ns(I11
I9
tp97
Ns(I17
I1
tp98
Ns(I14
I6
tp99
Ns(I13
I6
tp100
Ns(I19
I2
tp101
Ns(I18
I6
tp102
Ns(I0
I5
tp103
Ns(I15
I7
tp104
Ns(I20
I5
tp105
Ns(I1
I0
tp106
Ns(I0
I8
tp107
Ns(I3
I5
tp108
Ns(I2
I7
tp109
Ns(I8
I3
tp110
Ns(I4
I6
tp111
Ns(I9
I2
tp112
Ns(I6
I1
tp113
Ns(I5
I7
tp114
Ns(I11
I3
tp115
Ns(I7
I4
tp116
Ns(I12
I4
tp117
Ns(I15
I9
tp118
Ns(I14
I3
tp119
Ns(I13
I9
tp120
Ns(I19
I1
tp121
Ns(I7
I6
tp122
Ns(I1
I3
tp123
Ns(I4
I8
tp124
Ns(I3
I0
tp125
Ns(I2
I8
tp126
Ns(I9
I8
tp127
Ns(I8
I0
tp128
Ns(I6
I2
tp129
Ns(I14
I9
tp130
Ns(I12
I9
tp131
Ns(I18
I1
tp132
Ns(I21
I1
tp133
Ns(I5
I0
tp134
Ns(I10
I0
tp135
Ns(I12
I3
tp136
Ns(I17
I5
tp137
Ns(I13
I2
tp138
Ns(I19
I6
tp139
Ns(I18
I2
tp140
Ns(I15
I3
tp141
Ns(I20
I1
tp142
Ns(I1
I4
tp143
Ns(I7
I7
tp144
Ns(I21
I4
tp145
Ns(I3
I9
tp146
Ns(I2
I3
tp147
Ns(I1
I9
tp148
Ns(I8
I7
tp149
Ns(I4
I2
tp150
Ns(I9
I6
tp151
Ns(I6
I5
tp152
Ns(I5
I3
tp153
Ns(I11
I7
tp154
Ns(I10
I5
tp155
Ns(I16
I5
tp156
Ns(I6
I8
tp157
Ns(I12
I0
tp158
Ns(I11
I8
tp159
Ns(I17
I0
tp160
Ns(I16
I8
tp161
Ns(I14
I7
tp162
Ns(I13
I5
tp163
Ns(I19
I5
tp164
Ns(I18
I7
tp165
Ns(I0
I6
tp166
Ns(I15
I6
tp167
Ns(I20
I6
tp168
Ns(I1
I7
tp169
Ns(I0
I9
tp170
Ns(I21
I7
tp171
Ns(I3
I4
tp172
Ns(I2
I4
tp173
Ns(I8
I4
tp174
Ns(I5
I9
tp175
Ns(I4
I7
tp176
Ns(I9
I1
tp177
Ns(I6
I6
tp178
Ns(I5
I6
tp179
Ns(I11
I2
tp180
Ns(I10
I6
tp181
Ns(I16
I2
tp182
Ns(I12
I5
tp183
Ns(I17
I3
tp184
Ns(I15
I8
tp185
Ns(I14
I0
tp186
Ns(I13
I8
tp187
Ns(I20
I8
tp188
Ns(I19
I0
tp189
Ns(I18
I8
tp190
Ns(I0
I3
tp191
Ns(I15
I5
tp192
Ns(I1
I2
tp193
Ns(I16
I1
tp194
Ns(I4
I9
tp195
Ns(I3
I3
tp196
Ns(I2
I9
tp197
Ns(I8
I1
tp198
Ns(I4
I4
tp199
Ns(I6
I3
tp200
Ns(I11
I1
tp201
Ns(I16
I7
tp202
Ns(I21
I3
tp203
Ns(I0
I0
tp204
Ns(I21
I0
tp205
Ns(I10
I1
tp206
Ns(I17
I4
tp207
Ns(I7
I9
tp208
Ns(I13
I1
tp209
Ns(I19
I9
tp210
Ns(I18
I3
tp211
Ns(I17
I9
tp212
Ns(I15
I2
tp213
Ns(I20
I2
tp214
Ns(I0
I2
tp215
Ns(I3
I8
tp216
Ns(I2
I0
tp217
Ns(I1
I8
tp218
Ns(I16
I0
tp219
Ns(I4
I3
tp220
Ns(I9
I5
tp221
Ns(I5
I2
tp222
Ns(I11
I6
tp223
Ns(I10
I2
tp224
NssS'time'
p225
F1390395089.744
s.(dp0
S'trigger'
p1
S'31'
p2
sS'matrix'
p3
(dp4
(I7
I3
tp5
Ns(I6
I9
tp6
Ns(I12
I1
tp7
Ns(I16
I6
tp8
Ns(I16
I9
tp9
Ns(I14
I4
tp10
Ns(I13
I4
tp11
Ns(I19
I4
tp12
Ns(I18
I4
tp13
Ns(I0
I7
tp14
Ns(I15
I1
tp15
Ns(I21
I9
tp16
Ns(I20
I7
tp17
Ns(I1
I6
tp18
Ns(I21
I6
tp19
Ns(I3
I7
tp20
Ns(I2
I5
tp21
Ns(I8
I5
tp22
Ns(I5
I8
tp23
Ns(I4
I0
tp24
Ns(I10
I8
tp25
Ns(I9
I0
tp26
Ns(I6
I7
tp27
Ns(I5
I5
tp28
Ns(I11
I5
tp29
Ns(I10
I7
tp30
Ns(I16
I3
tp31
Ns(I17
I7
tp32
Ns(I12
I6
tp33
Ns(I8
I8
tp34
Ns(I17
I2
tp35
Ns(I14
I1
tp36
Ns(I13
I7
tp37
Ns(I20
I9
tp38
Ns(I19
I3
tp39
Ns(I18
I9
tp40
Ns(I0
I4
tp41
Ns(I15
I4
tp42
Ns(I20
I4
tp43
Ns(I1
I1
tp44
Ns(I3
I2
tp45
Ns(I2
I6
tp46
Ns(I8
I2
tp47
Ns(I4
I5
tp48
Ns(I9
I3
tp49
Ns(I6
I0
tp50
Ns(I11
I0
tp51
Ns(I7
I5
tp52
Ns(I7
I0
tp53
Ns(I14
I2
tp54
Ns(I0
I1
tp55
Ns(I3
I1
tp56
Ns(I9
I9
tp57
Ns(I7
I8
tp58
Ns(I14
I8
tp59
Ns(I13
I0
tp60
Ns(I12
I8
tp61
Ns(I19
I8
tp62
Ns(I18
I0
tp63
Ns(I17
I8
tp64
Ns(I20
I3
tp65
Ns(I21
I2
tp66
Ns(I2
I1
tp67
Ns(I8
I9
tp68
Ns(I9
I4
tp69
Ns(I5
I1
tp70
Ns(I10
I3
tp71
Ns(I7
I2
tp72
Ns(I12
I2
tp73
Ns(I17
I6
tp74
Ns(I14
I5
tp75
Ns(I13
I3
tp76
Ns(I19
I7
tp77
Ns(I18
I5
tp78
Ns(I7
I1
tp79
Ns(I15
I0
tp80
Ns(I21
I8
tp81
Ns(I20
I0
tp82
Ns(I1
I5
tp83
Ns(I21
I5
tp84
Ns(I3
I6
tp85
Ns(I2
I2
tp86
Ns(I8
I6
tp87
Ns(I4
I1
tp88
Ns(I10
I9
tp89
Ns(I9
I7
tp90
Ns(I6
I4
tp91
Ns(I5
I4
tp92
Ns(I11
I4
tp93
Ns(I10
I4
tp94
Ns(I16
I4
tp95
Ns(I12
I7
tp96
Ns(I11
I9
tp97
Ns(I17
I1
tp98
Ns(I14
I6
tp99
Ns(I13
I6
tp100
Ns(I19
I2
tp101
Ns(I18
I6
tp102
Ns(I0
I5
tp103
Ns(I15
I7
tp104
Ns(I20
I5
tp105
Ns(I1
I0
tp106
Ns(I0
I8
tp107
Ns(I3
I5
tp108
Ns(I2
I7
tp109
Ns(I8
I3
tp110
Ns(I4
I6
tp111
Ns(I9
I2
tp112
Ns(I6
I1
tp113
Ns(I5
I7
tp114
Ns(I11
I3
tp115
Ns(I7
I4
tp116
Ns(I12
I4
tp117
Ns(I15
I9
tp118
Ns(I14
I3
tp119
Ns(I13
I9
tp120
Ns(I19
I1
tp121
Ns(I7
I6
tp122
Ns(I1
I3
tp123
Ns(I4
I8
tp124
Ns(I3
I0
tp125
Ns(I2
I8
tp126
Ns(I9
I8
tp127
Ns(I8
I0
tp128
Ns(I6
I2
tp129
Ns(I14
I9
tp130
Ns(I12
I9
tp131
Ns(I18
I1
tp132
Ns(I21
I1
tp133
Ns(I5
I0
tp134
Ns(I10
I0
tp135
Ns(I12
I3
tp136
Ns(I17
I5
tp137
Ns(I13
I2
tp138
Ns(I19
I6
tp139
Ns(I18
I2
tp140
Ns(I15
I3
tp141
Ns(I20
I1
tp142
Ns(I1
I4
tp143
Ns(I7
I7
tp144
Ns(I21
I4
tp145
Ns(I3
I9
tp146
Ns(I2
I3
tp147
Ns(I1
I9
tp148
Ns(I8
I7
tp149
Ns(I4
I2
tp150
Ns(I9
I6
tp151
Ns(I6
I5
tp152
Ns(I5
I3
tp153
Ns(I11
I7
tp154
Ns(I10
I5
tp155
Ns(I16
I5
tp156
Ns(I6
I8
tp157
Ns(I12
I0
tp158
Ns(I11
I8
tp159
Ns(I17
I0
tp160
Ns(I16
I8
tp161
Ns(I14
I7
tp162
Ns(I13
I5
tp163
Ns(I19
I5
tp164
Ns(I18
I7
tp165
Ns(I0
I6
tp166
Ns(I15
I6
tp167
Ns(I20
I6
tp168
Ns(I1
I7
tp169
Ns(I0
I9
tp170
Ns(I21
I7
tp171
Ns(I3
I4
tp172
Ns(I2
I4
tp173
Ns(I8
I4
tp174
Ns(I5
I9
tp175
Ns(I4
I7
tp176
Ns(I9
I1
tp177
Ns(I6
I6
tp178
Ns(I5
I6
tp179
Ns(I11
I2
tp180
Ns(I10
I6
tp181
Ns(I16
I2
tp182
Ns(I12
I5
tp183
Ns(I17
I3
tp184
Ns(I15
I8
tp185
Ns(I14
I0
tp186
Ns(I13
I8
tp187
Ns(I20
I8
tp188
Ns(I19
I0
tp189
Ns(I18
I8
tp190
Ns(I0
I3
tp191
Ns(I15
I5
tp192
Ns(I1
I2
tp193
Ns(I16
I1
tp194
Ns(I4
I9
tp195
Ns(I3
I3
tp196
Ns(I2
I9
tp197
Ns(I8
I1
tp198
Ns(I4
I4
tp199
Ns(I6
I3
tp200
Ns(I11
I1
tp201
Ns(I16
I7
tp202
Ns(I21
I3
tp203
Ns(I0
I0
tp204
Ns(I21
I0
tp205
Ns(I10
I1
tp206
Ns(I17
I4
tp207
Ns(I7
I9
tp208
Ns(I13
I1
tp209
Ns(I19
I9
tp210
Ns(I18
I3
tp211
Ns(I17
I9
tp212
Ns(I15
I2
tp213
Ns(I20
I2
tp214
Ns(I0
I2
tp215
Ns(I3
I8
tp216
Ns(I2
I0
tp217
Ns(I1
I8
tp218
Ns(I16
I0
tp219
Ns(I4
I3
tp220
Ns(I9
I5
tp221
Ns(I5
I2
tp222
Ns(I11
I6
tp223
Ns(I10
I2
tp224
NssS'time'
p225
F1390395090.193
s.(dp0
S'trigger'
p1
S'9'
p2
sS'matrix'
p3
(dp4
(I7
I3
tp5
Ns(I6
I9
tp6
Ns(I12
I1
tp7
Ns(I16
I6
tp8
Ns(I16
I9
tp9
Ns(I14
I4
tp10
Ns(I13
I4
tp11
Ns(I19
I4
tp12
Ns(I18
I4
tp13
Ns(I0
I7
tp14
Ns(I15
I1
tp15
Ns(I21
I9
tp16
Ns(I20
I7
tp17
Ns(I1
I6
tp18
Ns(I21
I6
tp19
Ns(I3
I7
tp20
Ns(I2
I5
tp21
Ns(I8
I5
tp22
Ns(I5
I8
tp23
Ns(I4
I0
tp24
Ns(I10
I8
tp25
Ns(I9
I0
tp26
Ns(I6
I7
tp27
Ns(I5
I5
tp28
Ns(I11
I5
tp29
Ns(I10
I7
tp30
Ns(I16
I3
tp31
Ns(I17
I7
tp32
Ns(I12
I6
tp33
Ns(I8
I8
tp34
Ns(I17
I2
tp35
Ns(I14
I1
tp36
Ns(I13
I7
tp37
Ns(I20
I9
tp38
Ns(I19
I3
tp39
Ns(I18
I9
tp40
Ns(I0
I4
tp41
Ns(I15
I4
tp42
Ns(I20
I4
tp43
Ns(I1
I1
tp44
Ns(I3
I2
tp45
Ns(I2
I6
tp46
Ns(I8
I2
tp47
Ns(I4
I5
tp48
Ns(I9
I3
tp49
Ns(I6
I0
tp50
Ns(I11
I0
tp51
Ns(I7
I5
tp52
Ns(I7
I0
tp53
Ns(I14
I2
tp54
Ns(I0
I1
tp55
Ns(I3
I1
tp56
Ns(I9
I9
tp57
Ns(I7
I8
tp58
Ns(I14
I8
tp59
Ns(I13
I0
tp60
Ns(I12
I8
tp61
Ns(I19
I8
tp62
Ns(I18
I0
tp63
Ns(I17
I8
tp64
Ns(I20
I3
tp65
Ns(I21
I2
tp66
Ns(I2
I1
tp67
Ns(I8
I9
tp68
Ns(I9
I4
tp69
Ns(I5
I1
tp70
Ns(I10
I3
tp71
Ns(I7
I2
tp72
Ns(I12
I2
tp73
Ns(I17
I6
tp74
Ns(I14
I5
tp75
Ns(I13
I3
tp76
Ns(I19
I7
tp77
Ns(I18
I5
tp78
Ns(I7
I1
tp79
Ns(I15
I0
tp80
Ns(I21
I8
tp81
Ns(I20
I0
tp82
Ns(I1
I5
tp83
Ns(I21
I5
tp84
Ns(I3
I6
tp85
Ns(I2
I2
tp86
Ns(I8
I6
tp87
Ns(I4
I1
tp88
Ns(I10
I9
tp89
Ns(I9
I7
tp90
Ns(I6
I4
tp91
Ns(I5
I4
tp92
Ns(I11
I4
tp93
Ns(I10
I4
tp94
Ns(I16
I4
tp95
Ns(I12
I7
tp96
Ns(I11
I9
tp97
Ns(I17
I1
tp98
Ns(I14
I6
tp99
Ns(I13
I6
tp100
Ns(I19
I2
tp101
Ns(I18
I6
tp102
Ns(I0
I5
tp103
Ns(I15
I7
tp104
Ns(I20
I5
tp105
Ns(I1
I0
tp106
Ns(I0
I8
tp107
Ns(I3
I5
tp108
Ns(I2
I7
tp109
Ns(I8
I3
tp110
Ns(I4
I6
tp111
Ns(I9
I2
tp112
Ns(I6
I1
tp113
Ns(I5
I7
tp114
Ns(I11
I3
tp115
Ns(I7
I4
tp116
Ns(I12
I4
tp117
Ns(I15
I9
tp118
Ns(I14
I3
tp119
Ns(I13
I9
tp120
Ns(I19
I1
tp121
Ns(I7
I6
tp122
Ns(I1
I3
tp123
Ns(I4
I8
tp124
Ns(I3
I0
tp125
Ns(I2
I8
tp126
Ns(I9
I8
tp127
Ns(I8
I0
tp128
Ns(I6
I2
tp129
Ns(I14
I9
tp130
Ns(I12
I9
tp131
Ns(I18
I1
tp132
Ns(I21
I1
tp133
Ns(I5
I0
tp134
Ns(I10
I0
tp135
Ns(I12
I3
tp136
Ns(I17
I5
tp137
Ns(I13
I2
tp138
Ns(I19
I6
tp139
Ns(I18
I2
tp140
Ns(I15
I3
tp141
Ns(I20
I1
tp142
Ns(I1
I4
tp143
Ns(I7
I7
tp144
Ns(I21
I4
tp145
Ns(I3
I9
tp146
Ns(I2
I3
tp147
Ns(I1
I9
tp148
Ns(I8
I7
tp149
Ns(I4
I2
tp150
Ns(I9
I6
tp151
Ns(I6
I5
tp152
Ns(I5
I3
tp153
Ns(I11
I7
tp154
Ns(I10
I5
tp155
Ns(I16
I5
tp156
Ns(I6
I8
tp157
Ns(I12
I0
tp158
Ns(I11
I8
tp159
Ns(I17
I0
tp160
Ns(I16
I8
tp161
Ns(I14
I7
tp162
Ns(I13
I5
tp163
Ns(I19
I5
tp164
Ns(I18
I7
tp165
Ns(I0
I6
tp166
Ns(I15
I6
tp167
Ns(I20
I6
tp168
Ns(I1
I7
tp169
Ns(I0
I9
tp170
Ns(I21
I7
tp171
Ns(I3
I4
tp172
Ns(I2
I4
tp173
Ns(I8
I4
tp174
Ns(I5
I9
tp175
Ns(I4
I7
tp176
Ns(I9
I1
tp177
Ns(I6
I6
tp178
Ns(I5
I6
tp179
Ns(I11
I2
tp180
Ns(I10
I6
tp181
Ns(I16
I2
tp182
Ns(I12
I5
tp183
Ns(I17
I3
tp184
Ns(I15
I8
tp185
Ns(I14
I0
tp186
Ns(I13
I8
tp187
Ns(I20
I8
tp188
Ns(I19
I0
tp189
Ns(I18
I8
tp190
Ns(I0
I3
tp191
Ns(I15
I5
tp192
Ns(I1
I2
tp193
Ns(I16
I1
tp194
Ns(I4
I9
tp195
Ns(I3
I3
tp196
Ns(I2
I9
tp197
Ns(I8
I1
tp198
Ns(I4
I4
tp199
Ns(I6
I3
tp200
Ns(I11
I1
tp201
Ns(I16
I7
tp202
Ns(I21
I3
tp203
Ns(I0
I0
tp204
Ns(I21
I0
tp205
Ns(I10
I1
tp206
Ns(I17
I4
tp207
Ns(I7
I9
tp208
Ns(I13
I1
tp209
Ns(I19
I9
tp210
Ns(I18
I3
tp211
Ns(I17
I9
tp212
Ns(I15
I2
tp213
Ns(I20
I2
tp214
Ns(I0
I2
tp215
Ns(I3
I8
tp216
Ns(I2
I0
tp217
Ns(I1
I8
tp218
Ns(I16
I0
tp219
Ns(I4
I3
tp220
Ns(I9
I5
tp221
Ns(I5
I2
tp222
Ns(I11
I6
tp223
Ns(I10
I2
tp224
NssS'time'
p225
F1390395090.244
s.(dp0
S'trigger'
p1
S'7'
p2
sS'matrix'
p3
(dp4
(I7
I3
tp5
Ns(I6
I9
tp6
Ns(I12
I1
tp7
Ns(I16
I6
tp8
Ns(I16
I9
tp9
Ns(I14
I4
tp10
Ns(I13
I4
tp11
Ns(I19
I4
tp12
Ns(I18
I4
tp13
Ns(I0
I7
tp14
Ns(I15
I1
tp15
Ns(I21
I9
tp16
(S'block'
p17
cpygame
__color_constructor
p18
(I9
I225
I210
I255
tp19
Rp20
tp21
s(I20
I7
tp22
Ns(I1
I6
tp23
Ns(I21
I6
tp24
Ns(I3
I7
tp25
Ns(I2
I5
tp26
Ns(I8
I5
tp27
Ns(I5
I8
tp28
Ns(I4
I0
tp29
Ns(I10
I8
tp30
Ns(I9
I0
tp31
Ns(I6
I7
tp32
Ns(I5
I5
tp33
Ns(I11
I5
tp34
Ns(I10
I7
tp35
Ns(I16
I3
tp36
Ns(I17
I7
tp37
Ns(I12
I6
tp38
Ns(I17
I2
tp39
Ns(I14
I1
tp40
Ns(I13
I7
tp41
Ns(I20
I9
tp42
(g17
g18
(I9
I225
I210
I255
tp43
Rp44
tp45
s(I19
I3
tp46
Ns(I18
I9
tp47
Ns(I0
I4
tp48
Ns(I15
I4
tp49
Ns(I20
I4
tp50
Ns(I1
I1
tp51
Ns(I3
I2
tp52
Ns(I2
I6
tp53
Ns(I8
I2
tp54
Ns(I4
I5
tp55
Ns(I9
I3
tp56
Ns(I6
I0
tp57
Ns(I11
I0
tp58
Ns(I7
I5
tp59
Ns(I16
I5
tp60
Ns(I14
I2
tp61
Ns(I0
I1
tp62
Ns(I3
I1
tp63
Ns(I9
I9
tp64
Ns(I7
I8
tp65
Ns(I14
I8
tp66
Ns(I13
I0
tp67
Ns(I12
I8
tp68
Ns(I19
I8
tp69
Ns(I18
I0
tp70
Ns(I17
I8
tp71
Ns(I20
I3
tp72
Ns(I21
I2
tp73
Ns(I2
I1
tp74
Ns(I8
I9
tp75
Ns(I9
I4
tp76
Ns(I5
I1
tp77
Ns(I10
I3
tp78
Ns(I7
I2
tp79
Ns(I12
I2
tp80
Ns(I17
I6
tp81
Ns(I14
I5
tp82
Ns(I13
I3
tp83
Ns(I19
I7
tp84
Ns(I18
I5
tp85
Ns(I16
I4
tp86
Ns(I15
I0
tp87
Ns(I21
I8
tp88
(g17
g18
(I9
I225
I210
I255
tp89
Rp90
tp91
s(I20
I0
tp92
Ns(I1
I5
tp93
Ns(I21
I5
tp94
Ns(I3
I6
tp95
Ns(I2
I2
tp96
Ns(I8
I6
tp97
Ns(I4
I1
tp98
Ns(I10
I9
tp99
Ns(I9
I7
tp100
Ns(I6
I4
tp101
Ns(I5
I4
tp102
Ns(I11
I4
tp103
Ns(I10
I4
tp104
Ns(I7
I1
tp105
Ns(I12
I7
tp106
Ns(I11
I9
tp107
Ns(I17
I1
tp108
Ns(I14
I6
tp109
Ns(I13
I6
tp110
Ns(I19
I2
tp111
Ns(I18
I6
tp112
Ns(I0
I5
tp113
Ns(I15
I7
tp114
Ns(I20
I5
tp115
Ns(I1
I0
tp116
Ns(I0
I8
tp117
Ns(I3
I5
tp118
Ns(I2
I7
tp119
Ns(I8
I3
tp120
Ns(I0
I2
tp121
Ns(I4
I6
tp122
Ns(I9
I2
tp123
Ns(I6
I1
tp124
Ns(I5
I7
tp125
Ns(I11
I3
tp126
Ns(I7
I4
tp127
Ns(I12
I4
tp128
Ns(I15
I9
tp129
Ns(I14
I3
tp130
Ns(I13
I9
tp131
Ns(I19
I1
tp132
Ns(I7
I6
tp133
Ns(I1
I3
tp134
Ns(I4
I8
tp135
Ns(I3
I0
tp136
Ns(I2
I8
tp137
Ns(I9
I8
tp138
Ns(I8
I0
tp139
Ns(I6
I2
tp140
Ns(I14
I9
tp141
Ns(I12
I9
tp142
Ns(I18
I1
tp143
Ns(I16
I0
tp144
Ns(I21
I1
tp145
Ns(I5
I0
tp146
Ns(I10
I0
tp147
Ns(I12
I3
tp148
Ns(I17
I5
tp149
Ns(I13
I2
tp150
Ns(I19
I6
tp151
Ns(I18
I2
tp152
Ns(I15
I3
tp153
Ns(I20
I1
tp154
Ns(I1
I4
tp155
Ns(I16
I2
tp156
Ns(I21
I4
tp157
Ns(I3
I9
tp158
Ns(I2
I3
tp159
Ns(I1
I9
tp160
Ns(I8
I7
tp161
Ns(I4
I2
tp162
Ns(I9
I6
tp163
Ns(I6
I5
tp164
Ns(I5
I3
tp165
Ns(I11
I7
tp166
Ns(I10
I5
tp167
Ns(I7
I0
tp168
Ns(I6
I8
tp169
Ns(I12
I0
tp170
Ns(I11
I8
tp171
Ns(I17
I0
tp172
Ns(I16
I8
tp173
Ns(I14
I7
tp174
Ns(I13
I5
tp175
Ns(I19
I5
tp176
Ns(I18
I7
tp177
Ns(I0
I6
tp178
Ns(I15
I6
tp179
Ns(I20
I6
tp180
Ns(I1
I7
tp181
Ns(I0
I9
tp182
Ns(I21
I7
tp183
Ns(I3
I4
tp184
Ns(I2
I4
tp185
Ns(I8
I4
tp186
Ns(I5
I9
tp187
Ns(I4
I7
tp188
Ns(I9
I1
tp189
Ns(I6
I6
tp190
Ns(I5
I6
tp191
Ns(I11
I2
tp192
Ns(I10
I6
tp193
Ns(I7
I7
tp194
Ns(I12
I5
tp195
Ns(I17
I3
tp196
Ns(I15
I8
tp197
Ns(I14
I0
tp198
Ns(I13
I8
tp199
Ns(I20
I8
tp200
Ns(I19
I0
tp201
Ns(I18
I8
tp202
Ns(I0
I3
tp203
Ns(I15
I5
tp204
Ns(I1
I2
tp205
Ns(I16
I1
tp206
Ns(I4
I9
tp207
Ns(I3
I3
tp208
Ns(I2
I9
tp209
Ns(I8
I1
tp210
Ns(I4
I4
tp211
Ns(I6
I3
tp212
Ns(I11
I1
tp213
Ns(I16
I7
tp214
Ns(I0
I0
tp215
Ns(I21
I0
tp216
Ns(I10
I1
tp217
Ns(I17
I4
tp218
Ns(I7
I9
tp219
Ns(I13
I1
tp220
Ns(I19
I9
tp221
(g17
g18
(I9
I225
I210
I255
tp222
Rp223
tp224
s(I18
I3
tp225
Ns(I17
I9
tp226
Ns(I15
I2
tp227
Ns(I20
I2
tp228
Ns(I21
I3
tp229
Ns(I3
I8
tp230
Ns(I2
I0
tp231
Ns(I1
I8
tp232
Ns(I8
I8
tp233
Ns(I4
I3
tp234
Ns(I9
I5
tp235
Ns(I5
I2
tp236
Ns(I11
I6
tp237
Ns(I10
I2
tp238
NssS'time'
p239
F1390395093.988
s.(dp0
S'trigger'
p1
S'7'
p2
sS'matrix'
p3
(dp4
(I7
I3
tp5
Ns(I6
I9
tp6
Ns(I12
I1
tp7
Ns(I16
I6
tp8
Ns(I16
I9
tp9
Ns(I14
I4
tp10
Ns(I13
I4
tp11
Ns(I19
I4
tp12
Ns(I18
I4
tp13
Ns(I0
I7
tp14
Ns(I15
I1
tp15
Ns(I21
I9
tp16
(S'block'
p17
cpygame
__color_constructor
p18
(I9
I225
I210
I255
tp19
Rp20
tp21
s(I20
I7
tp22
Ns(I1
I6
tp23
Ns(I21
I6
tp24
Ns(I3
I7
tp25
Ns(I2
I5
tp26
Ns(I8
I5
tp27
Ns(I5
I8
tp28
Ns(I4
I0
tp29
Ns(I10
I8
tp30
Ns(I9
I0
tp31
Ns(I6
I7
tp32
Ns(I5
I5
tp33
Ns(I11
I5
tp34
Ns(I10
I7
tp35
Ns(I16
I3
tp36
Ns(I17
I7
tp37
Ns(I12
I6
tp38
Ns(I8
I8
tp39
Ns(I17
I2
tp40
Ns(I14
I1
tp41
Ns(I13
I7
tp42
Ns(I20
I9
tp43
(g17
g18
(I9
I225
I210
I255
tp44
Rp45
tp46
s(I19
I3
tp47
Ns(I18
I9
tp48
Ns(I0
I4
tp49
Ns(I15
I4
tp50
Ns(I20
I4
tp51
Ns(I1
I1
tp52
Ns(I3
I2
tp53
Ns(I2
I6
tp54
Ns(I8
I2
tp55
Ns(I4
I5
tp56
Ns(I9
I3
tp57
Ns(I6
I0
tp58
Ns(I11
I0
tp59
Ns(I7
I5
tp60
Ns(I7
I0
tp61
Ns(I14
I2
tp62
Ns(I0
I1
tp63
Ns(I3
I1
tp64
Ns(I9
I9
tp65
Ns(I7
I8
tp66
Ns(I14
I8
tp67
Ns(I13
I0
tp68
Ns(I12
I8
tp69
Ns(I19
I8
tp70
Ns(I18
I0
tp71
Ns(I17
I8
tp72
Ns(I20
I3
tp73
Ns(I21
I2
tp74
(g17
g18
(I8
I255
I215
I255
tp75
Rp76
tp77
s(I2
I1
tp78
Ns(I8
I9
tp79
Ns(I9
I4
tp80
Ns(I5
I1
tp81
Ns(I10
I3
tp82
Ns(I7
I2
tp83
Ns(I12
I2
tp84
Ns(I17
I6
tp85
Ns(I14
I5
tp86
Ns(I13
I3
tp87
Ns(I19
I7
tp88
Ns(I18
I5
tp89
Ns(I7
I1
tp90
Ns(I15
I0
tp91
Ns(I21
I8
tp92
(g17
g18
(I9
I225
I210
I255
tp93
Rp94
tp95
s(I20
I0
tp96
(g17
g18
(I8
I255
I215
I255
tp97
Rp98
tp99
s(I1
I5
tp100
Ns(I21
I5
tp101
Ns(I3
I6
tp102
Ns(I2
I2
tp103
Ns(I8
I6
tp104
Ns(I4
I1
tp105
Ns(I10
I9
tp106
Ns(I9
I7
tp107
Ns(I6
I4
tp108
Ns(I5
I4
tp109
Ns(I11
I4
tp110
Ns(I10
I4
tp111
Ns(I16
I4
tp112
Ns(I12
I7
tp113
Ns(I11
I9
tp114
Ns(I17
I1
tp115
Ns(I14
I6
tp116
Ns(I13
I6
tp117
Ns(I19
I2
tp118
Ns(I18
I6
tp119
Ns(I0
I5
tp120
Ns(I15
I7
tp121
Ns(I20
I5
tp122
Ns(I1
I0
tp123
Ns(I0
I8
tp124
Ns(I3
I5
tp125
Ns(I2
I7
tp126
Ns(I8
I3
tp127
Ns(I4
I6
tp128
Ns(I9
I2
tp129
Ns(I6
I1
tp130
Ns(I5
I7
tp131
Ns(I11
I3
tp132
Ns(I7
I4
tp133
Ns(I12
I4
tp134
Ns(I15
I9
tp135
Ns(I14
I3
tp136
Ns(I13
I9
tp137
Ns(I19
I1
tp138
Ns(I0
I2
tp139
Ns(I1
I3
tp140
Ns(I4
I8
tp141
Ns(I3
I0
tp142
Ns(I2
I8
tp143
Ns(I9
I8
tp144
Ns(I8
I0
tp145
Ns(I6
I2
tp146
Ns(I14
I9
tp147
Ns(I12
I9
tp148
Ns(I18
I1
tp149
Ns(I21
I1
tp150
(g17
g18
(I8
I255
I215
I255
tp151
Rp152
tp153
s(I5
I0
tp154
Ns(I10
I0
tp155
Ns(I12
I3
tp156
Ns(I17
I5
tp157
Ns(I7
I6
tp158
Ns(I13
I2
tp159
Ns(I19
I6
tp160
Ns(I18
I2
tp161
Ns(I15
I3
tp162
Ns(I20
I1
tp163
Ns(I1
I4
tp164
Ns(I7
I7
tp165
Ns(I21
I4
tp166
Ns(I3
I9
tp167
Ns(I2
I3
tp168
Ns(I1
I9
tp169
Ns(I8
I7
tp170
Ns(I4
I2
tp171
Ns(I9
I6
tp172
Ns(I6
I5
tp173
Ns(I5
I3
tp174
Ns(I11
I7
tp175
Ns(I10
I5
tp176
Ns(I16
I5
tp177
Ns(I6
I8
tp178
Ns(I12
I0
tp179
Ns(I11
I8
tp180
Ns(I17
I0
tp181
Ns(I16
I8
tp182
Ns(I14
I7
tp183
Ns(I13
I5
tp184
Ns(I19
I5
tp185
Ns(I18
I7
tp186
Ns(I0
I6
tp187
Ns(I15
I6
tp188
Ns(I20
I6
tp189
Ns(I1
I7
tp190
Ns(I0
I9
tp191
Ns(I21
I7
tp192
Ns(I3
I4
tp193
Ns(I2
I4
tp194
Ns(I8
I4
tp195
Ns(I5
I9
tp196
Ns(I4
I7
tp197
Ns(I9
I1
tp198
Ns(I6
I6
tp199
Ns(I5
I6
tp200
Ns(I11
I2
tp201
Ns(I10
I6
tp202
Ns(I16
I2
tp203
Ns(I12
I5
tp204
Ns(I17
I3
tp205
Ns(I15
I8
tp206
Ns(I14
I0
tp207
Ns(I13
I8
tp208
Ns(I20
I8
tp209
Ns(I19
I0
tp210
Ns(I18
I8
tp211
Ns(I0
I3
tp212
Ns(I15
I5
tp213
Ns(I1
I2
tp214
Ns(I16
I1
tp215
Ns(I4
I9
tp216
Ns(I3
I3
tp217
Ns(I2
I9
tp218
Ns(I8
I1
tp219
Ns(I4
I4
tp220
Ns(I6
I3
tp221
Ns(I11
I1
tp222
Ns(I16
I7
tp223
Ns(I0
I0
tp224
Ns(I21
I0
tp225
(g17
g18
(I8
I255
I215
I255
tp226
Rp227
tp228
s(I10
I1
tp229
Ns(I17
I4
tp230
Ns(I7
I9
tp231
Ns(I13
I1
tp232
Ns(I19
I9
tp233
(g17
g18
(I9
I225
I210
I255
tp234
Rp235
tp236
s(I18
I3
tp237
Ns(I17
I9
tp238
Ns(I15
I2
tp239
Ns(I20
I2
tp240
Ns(I21
I3
tp241
Ns(I3
I8
tp242
Ns(I2
I0
tp243
Ns(I1
I8
tp244
Ns(I16
I0
tp245
Ns(I4
I3
tp246
Ns(I9
I5
tp247
Ns(I5
I2
tp248
Ns(I11
I6
tp249
Ns(I10
I2
tp250
NssS'time'
p251
F1390395098.177
s.(dp0
S'trigger'
p1
S'7'
p2
sS'matrix'
p3
(dp4
(I7
I3
tp5
Ns(I6
I9
tp6
Ns(I12
I1
tp7
Ns(I16
I6
tp8
Ns(I16
I9
tp9
Ns(I14
I4
tp10
Ns(I13
I4
tp11
Ns(I19
I4
tp12
Ns(I18
I4
tp13
Ns(I0
I7
tp14
Ns(I15
I1
tp15
Ns(I21
I9
tp16
(S'block'
p17
cpygame
__color_constructor
p18
(I9
I225
I210
I255
tp19
Rp20
tp21
s(I20
I7
tp22
Ns(I1
I6
tp23
Ns(I21
I6
tp24
Ns(I3
I7
tp25
Ns(I2
I5
tp26
Ns(I8
I5
tp27
Ns(I5
I8
tp28
Ns(I4
I0
tp29
Ns(I10
I8
tp30
Ns(I9
I0
tp31
Ns(I6
I7
tp32
Ns(I5
I5
tp33
Ns(I11
I5
tp34
Ns(I10
I7
tp35
Ns(I16
I3
tp36
Ns(I17
I7
tp37
Ns(I12
I6
tp38
Ns(I17
I2
tp39
Ns(I14
I1
tp40
Ns(I13
I7
tp41
Ns(I20
I9
tp42
(g17
g18
(I9
I225
I210
I255
tp43
Rp44
tp45
s(I19
I3
tp46
Ns(I18
I9
tp47
Ns(I0
I4
tp48
Ns(I15
I4
tp49
Ns(I20
I4
tp50
Ns(I1
I1
tp51
Ns(I3
I2
tp52
Ns(I2
I6
tp53
Ns(I8
I2
tp54
Ns(I4
I5
tp55
Ns(I9
I3
tp56
Ns(I6
I0
tp57
Ns(I11
I0
tp58
Ns(I7
I5
tp59
Ns(I16
I5
tp60
Ns(I14
I2
tp61
Ns(I0
I1
tp62
Ns(I3
I1
tp63
Ns(I9
I9
tp64
Ns(I7
I8
tp65
Ns(I14
I8
tp66
Ns(I13
I0
tp67
Ns(I12
I8
tp68
Ns(I19
I8
tp69
Ns(I18
I0
tp70
Ns(I17
I8
tp71
Ns(I20
I3
tp72
(g17
g18
(I231
I20
I25
I255
tp73
Rp74
tp75
s(I21
I2
tp76
(g17
g18
(I8
I255
I215
I255
tp77
Rp78
tp79
s(I2
I1
tp80
Ns(I8
I9
tp81
Ns(I9
I4
tp82
Ns(I5
I1
tp83
Ns(I10
I3
tp84
Ns(I7
I2
tp85
Ns(I12
I2
tp86
Ns(I17
I6
tp87
Ns(I14
I5
tp88
Ns(I13
I3
tp89
Ns(I19
I7
tp90
Ns(I18
I5
tp91
Ns(I16
I4
tp92
Ns(I15
I0
tp93
Ns(I21
I8
tp94
(g17
g18
(I9
I225
I210
I255
tp95
Rp96
tp97
s(I20
I0
tp98
(g17
g18
(I8
I255
I215
I255
tp99
Rp100
tp101
s(I1
I5
tp102
Ns(I21
I5
tp103
Ns(I3
I6
tp104
Ns(I2
I2
tp105
Ns(I8
I6
tp106
Ns(I4
I1
tp107
Ns(I10
I9
tp108
Ns(I9
I7
tp109
Ns(I6
I4
tp110
Ns(I5
I4
tp111
Ns(I11
I4
tp112
Ns(I10
I4
tp113
Ns(I7
I1
tp114
Ns(I12
I7
tp115
Ns(I11
I9
tp116
Ns(I17
I1
tp117
Ns(I14
I6
tp118
Ns(I13
I6
tp119
Ns(I19
I2
tp120
Ns(I18
I6
tp121
Ns(I0
I5
tp122
Ns(I15
I7
tp123
Ns(I20
I5
tp124
Ns(I1
I0
tp125
Ns(I0
I8
tp126
Ns(I3
I5
tp127
Ns(I2
I7
tp128
Ns(I8
I3
tp129
Ns(I4
I6
tp130
Ns(I9
I2
tp131
Ns(I6
I1
tp132
Ns(I5
I7
tp133
Ns(I11
I3
tp134
Ns(I7
I4
tp135
Ns(I12
I4
tp136
Ns(I15
I9
tp137
Ns(I14
I3
tp138
Ns(I13
I9
tp139
Ns(I19
I1
tp140
Ns(I0
I2
tp141
Ns(I1
I3
tp142
Ns(I4
I8
tp143
Ns(I3
I0
tp144
Ns(I2
I8
tp145
Ns(I9
I8
tp146
Ns(I8
I0
tp147
Ns(I6
I2
tp148
Ns(I14
I9
tp149
Ns(I12
I9
tp150
Ns(I18
I1
tp151
Ns(I16
I0
tp152
Ns(I21
I1
tp153
(g17
g18
(I8
I255
I215
I255
tp154
Rp155
tp156
s(I5
I0
tp157
Ns(I10
I0
tp158
Ns(I12
I3
tp159
Ns(I17
I5
tp160
Ns(I7
I6
tp161
Ns(I13
I2
tp162
Ns(I19
I6
tp163
Ns(I18
I2
tp164
Ns(I15
I3
tp165
Ns(I20
I1
tp166
Ns(I1
I4
tp167
Ns(I16
I2
tp168
Ns(I21
I4
tp169
(g17
g18
(I231
I20
I25
I255
tp170
Rp171
tp172
s(I3
I9
tp173
Ns(I2
I3
tp174
Ns(I1
I9
tp175
Ns(I8
I7
tp176
Ns(I4
I2
tp177
Ns(I9
I6
tp178
Ns(I6
I5
tp179
Ns(I5
I3
tp180
Ns(I11
I7
tp181
Ns(I10
I5
tp182
Ns(I7
I0
tp183
Ns(I6
I8
tp184
Ns(I12
I0
tp185
Ns(I11
I8
tp186
Ns(I17
I0
tp187
Ns(I16
I8
tp188
Ns(I14
I7
tp189
Ns(I13
I5
tp190
Ns(I19
I5
tp191
Ns(I18
I7
tp192
Ns(I0
I6
tp193
Ns(I15
I6
tp194
Ns(I20
I6
tp195
Ns(I1
I7
tp196
Ns(I0
I9
tp197
Ns(I21
I7
tp198
Ns(I3
I4
tp199
Ns(I2
I4
tp200
Ns(I8
I4
tp201
Ns(I5
I9
tp202
Ns(I4
I7
tp203
Ns(I9
I1
tp204
Ns(I6
I6
tp205
Ns(I5
I6
tp206
Ns(I11
I2
tp207
Ns(I10
I6
tp208
Ns(I7
I7
tp209
Ns(I12
I5
tp210
Ns(I17
I3
tp211
Ns(I15
I8
tp212
Ns(I14
I0
tp213
Ns(I13
I8
tp214
Ns(I20
I8
tp215
Ns(I19
I0
tp216
Ns(I18
I8
tp217
Ns(I0
I3
tp218
Ns(I15
I5
tp219
Ns(I1
I2
tp220
Ns(I16
I1
tp221
Ns(I4
I9
tp222
Ns(I3
I3
tp223
Ns(I2
I9
tp224
Ns(I8
I1
tp225
Ns(I4
I4
tp226
Ns(I6
I3
tp227
Ns(I11
I1
tp228
Ns(I16
I7
tp229
Ns(I0
I0
tp230
Ns(I21
I0
tp231
(g17
g18
(I8
I255
I215
I255
tp232
Rp233
tp234
s(I10
I1
tp235
Ns(I17
I4
tp236
Ns(I7
I9
tp237
Ns(I13
I1
tp238
Ns(I19
I9
tp239
(g17
g18
(I9
I225
I210
I255
tp240
Rp241
tp242
s(I18
I3
tp243
Ns(I17
I9
tp244
Ns(I15
I2
tp245
Ns(I20
I2
tp246
(g17
g18
(I231
I20
I25
I255
tp247
Rp248
tp249
s(I21
I3
tp250
(g17
g18
(I231
I20
I25
I255
tp251
Rp252
tp253
s(I3
I8
tp254
Ns(I2
I0
tp255
Ns(I1
I8
tp256
Ns(I8
I8
tp257
Ns(I4
I3
tp258
Ns(I9
I5
tp259
Ns(I5
I2
tp260
Ns(I11
I6
tp261
Ns(I10
I2
tp262
NssS'time'
p263
F1390395102.376
s.(dp0
S'trigger'
p1
S'7'
p2
sS'matrix'
p3
(dp4
(I7
I3
tp5
Ns(I6
I9
tp6
Ns(I12
I1
tp7
Ns(I16
I6
tp8
Ns(I16
I9
tp9
Ns(I14
I4
tp10
Ns(I13
I4
tp11
Ns(I19
I4
tp12
Ns(I18
I4
tp13
Ns(I0
I7
tp14
Ns(I15
I1
tp15
Ns(I21
I9
tp16
(S'block'
p17
cpygame
__color_constructor
p18
(I9
I225
I210
I255
tp19
Rp20
tp21
s(I20
I7
tp22
(g17
g18
(I212
I115
I13
I255
tp23
Rp24
tp25
s(I1
I6
tp26
Ns(I21
I6
tp27
(g17
g18
(I212
I115
I13
I255
tp28
Rp29
tp30
s(I3
I7
tp31
Ns(I2
I5
tp32
Ns(I8
I5
tp33
Ns(I5
I8
tp34
Ns(I4
I0
tp35
Ns(I10
I8
tp36
Ns(I9
I0
tp37
Ns(I6
I7
tp38
Ns(I5
I5
tp39
Ns(I11
I5
tp40
Ns(I10
I7
tp41
Ns(I16
I3
tp42
Ns(I17
I7
tp43
Ns(I12
I6
tp44
Ns(I8
I8
tp45
Ns(I17
I2
tp46
Ns(I14
I1
tp47
Ns(I13
I7
tp48
Ns(I20
I9
tp49
(g17
g18
(I9
I225
I210
I255
tp50
Rp51
tp52
s(I19
I3
tp53
Ns(I18
I9
tp54
Ns(I0
I4
tp55
Ns(I15
I4
tp56
Ns(I20
I4
tp57
Ns(I1
I1
tp58
Ns(I3
I2
tp59
Ns(I2
I6
tp60
Ns(I8
I2
tp61
Ns(I4
I5
tp62
Ns(I9
I3
tp63
Ns(I6
I0
tp64
Ns(I11
I0
tp65
Ns(I7
I5
tp66
Ns(I7
I0
tp67
Ns(I14
I2
tp68
Ns(I0
I1
tp69
Ns(I3
I1
tp70
Ns(I9
I9
tp71
Ns(I7
I8
tp72
Ns(I14
I8
tp73
Ns(I13
I0
tp74
Ns(I12
I8
tp75
Ns(I19
I8
tp76
Ns(I18
I0
tp77
Ns(I17
I8
tp78
Ns(I20
I3
tp79
(g17
g18
(I231
I20
I25
I255
tp80
Rp81
tp82
s(I21
I2
tp83
(g17
g18
(I8
I255
I215
I255
tp84
Rp85
tp86
s(I2
I1
tp87
Ns(I8
I9
tp88
Ns(I9
I4
tp89
Ns(I5
I1
tp90
Ns(I10
I3
tp91
Ns(I7
I2
tp92
Ns(I12
I2
tp93
Ns(I17
I6
tp94
Ns(I14
I5
tp95
Ns(I13
I3
tp96
Ns(I19
I7
tp97
Ns(I18
I5
tp98
Ns(I7
I1
tp99
Ns(I15
I0
tp100
Ns(I21
I8
tp101
(g17
g18
(I9
I225
I210
I255
tp102
Rp103
tp104
s(I20
I0
tp105
(g17
g18
(I8
I255
I215
I255
tp106
Rp107
tp108
s(I1
I5
tp109
Ns(I21
I5
tp110
(g17
g18
(I212
I115
I13
I255
tp111
Rp112
tp113
s(I3
I6
tp114
Ns(I2
I2
tp115
Ns(I8
I6
tp116
Ns(I4
I1
tp117
Ns(I10
I9
tp118
Ns(I9
I7
tp119
Ns(I6
I4
tp120
Ns(I5
I4
tp121
Ns(I11
I4
tp122
Ns(I10
I4
tp123
Ns(I16
I4
tp124
Ns(I12
I7
tp125
Ns(I11
I9
tp126
Ns(I17
I1
tp127
Ns(I14
I6
tp128
Ns(I13
I6
tp129
Ns(I19
I2
tp130
Ns(I18
I6
tp131
Ns(I0
I5
tp132
Ns(I15
I7
tp133
Ns(I20
I5
tp134
Ns(I1
I0
tp135
Ns(I0
I8
tp136
Ns(I3
I5
tp137
Ns(I2
I7
tp138
Ns(I8
I3
tp139
Ns(I4
I6
tp140
Ns(I9
I2
tp141
Ns(I6
I1
tp142
Ns(I5
I7
tp143
Ns(I11
I3
tp144
Ns(I7
I4
tp145
Ns(I12
I4
tp146
Ns(I15
I9
tp147
Ns(I14
I3
tp148
Ns(I13
I9
tp149
Ns(I19
I1
tp150
Ns(I0
I2
tp151
Ns(I1
I3
tp152
Ns(I4
I8
tp153
Ns(I3
I0
tp154
Ns(I2
I8
tp155
Ns(I9
I8
tp156
Ns(I8
I0
tp157
Ns(I6
I2
tp158
Ns(I14
I9
tp159
Ns(I12
I9
tp160
Ns(I18
I1
tp161
Ns(I21
I1
tp162
(g17
g18
(I8
I255
I215
I255
tp163
Rp164
tp165
s(I5
I0
tp166
Ns(I10
I0
tp167
Ns(I12
I3
tp168
Ns(I17
I5
tp169
Ns(I7
I6
tp170
Ns(I13
I2
tp171
Ns(I19
I6
tp172
Ns(I18
I2
tp173
Ns(I15
I3
tp174
Ns(I20
I1
tp175
Ns(I1
I4
tp176
Ns(I7
I7
tp177
Ns(I21
I4
tp178
(g17
g18
(I231
I20
I25
I255
tp179
Rp180
tp181
s(I3
I9
tp182
Ns(I2
I3
tp183
Ns(I1
I9
tp184
Ns(I8
I7
tp185
Ns(I4
I2
tp186
Ns(I9
I6
tp187
Ns(I6
I5
tp188
Ns(I5
I3
tp189
Ns(I11
I7
tp190
Ns(I10
I5
tp191
Ns(I16
I5
tp192
Ns(I6
I8
tp193
Ns(I12
I0
tp194
Ns(I11
I8
tp195
Ns(I17
I0
tp196
Ns(I16
I8
tp197
Ns(I14
I7
tp198
Ns(I13
I5
tp199
Ns(I19
I5
tp200
Ns(I18
I7
tp201
Ns(I0
I6
tp202
Ns(I15
I6
tp203
Ns(I20
I6
tp204
Ns(I1
I7
tp205
Ns(I0
I9
tp206
Ns(I21
I7
tp207
(g17
g18
(I212
I115
I13
I255
tp208
Rp209
tp210
s(I3
I4
tp211
Ns(I2
I4
tp212
Ns(I8
I4
tp213
Ns(I5
I9
tp214
Ns(I4
I7
tp215
Ns(I9
I1
tp216
Ns(I6
I6
tp217
Ns(I5
I6
tp218
Ns(I11
I2
tp219
Ns(I10
I6
tp220
Ns(I16
I2
tp221
Ns(I12
I5
tp222
Ns(I17
I3
tp223
Ns(I15
I8
tp224
Ns(I14
I0
tp225
Ns(I13
I8
tp226
Ns(I20
I8
tp227
Ns(I19
I0
tp228
Ns(I18
I8
tp229
Ns(I0
I3
tp230
Ns(I15
I5
tp231
Ns(I1
I2
tp232
Ns(I16
I1
tp233
Ns(I4
I9
tp234
Ns(I3
I3
tp235
Ns(I2
I9
tp236
Ns(I8
I1
tp237
Ns(I4
I4
tp238
Ns(I6
I3
tp239
Ns(I11
I1
tp240
Ns(I16
I7
tp241
Ns(I0
I0
tp242
Ns(I21
I0
tp243
(g17
g18
(I8
I255
I215
I255
tp244
Rp245
tp246
s(I10
I1
tp247
Ns(I17
I4
tp248
Ns(I7
I9
tp249
Ns(I13
I1
tp250
Ns(I19
I9
tp251
(g17
g18
(I9
I225
I210
I255
tp252
Rp253
tp254
s(I18
I3
tp255
Ns(I17
I9
tp256
Ns(I15
I2
tp257
Ns(I20
I2
tp258
(g17
g18
(I231
I20
I25
I255
tp259
Rp260
tp261
s(I21
I3
tp262
(g17
g18
(I231
I20
I25
I255
tp263
Rp264
tp265
s(I3
I8
tp266
Ns(I2
I0
tp267
Ns(I1
I8
tp268
Ns(I16
I0
tp269
Ns(I4
I3
tp270
Ns(I9
I5
tp271
Ns(I5
I2
tp272
Ns(I11
I6
tp273
Ns(I10
I2
tp274
NssS'time'
p275
F1390395106.587
s.(dp0
S'trigger'
p1
S'0'
p2
sS'matrix'
p3
(dp4
(I7
I3
tp5
Ns(I6
I9
tp6
Ns(I12
I1
tp7
Ns(I16
I6
tp8
Ns(I16
I9
tp9
Ns(I14
I4
tp10
Ns(I13
I4
tp11
Ns(I19
I4
tp12
Ns(I18
I4
tp13
Ns(I0
I7
tp14
Ns(I15
I1
tp15
Ns(I21
I9
tp16
(S'block'
p17
cpygame
__color_constructor
p18
(I9
I225
I210
I255
tp19
Rp20
tp21
s(I20
I7
tp22
Ns(I1
I6
tp23
Ns(I21
I6
tp24
Ns(I3
I7
tp25
Ns(I2
I5
tp26
Ns(I8
I5
tp27
Ns(I5
I8
tp28
Ns(I4
I0
tp29
Ns(I10
I8
tp30
Ns(I9
I0
tp31
Ns(I6
I7
tp32
Ns(I5
I5
tp33
Ns(I11
I5
tp34
Ns(I10
I7
tp35
Ns(I16
I3
tp36
Ns(I17
I7
tp37
Ns(I12
I6
tp38
Ns(I8
I8
tp39
Ns(I17
I2
tp40
Ns(I14
I1
tp41
Ns(I13
I7
tp42
Ns(I20
I9
tp43
(g17
g18
(I9
I225
I210
I255
tp44
Rp45
tp46
s(I19
I3
tp47
Ns(I18
I9
tp48
Ns(I0
I4
tp49
Ns(I15
I4
tp50
Ns(I20
I4
tp51
Ns(I1
I1
tp52
Ns(I3
I2
tp53
Ns(I2
I6
tp54
Ns(I8
I2
tp55
Ns(I4
I5
tp56
Ns(I9
I3
tp57
Ns(I6
I0
tp58
Ns(I11
I0
tp59
Ns(I7
I5
tp60
Ns(I7
I0
tp61
Ns(I14
I2
tp62
Ns(I0
I1
tp63
Ns(I3
I1
tp64
Ns(I9
I9
tp65
Ns(I7
I8
tp66
Ns(I14
I8
tp67
Ns(I13
I0
tp68
Ns(I12
I8
tp69
Ns(I19
I8
tp70
Ns(I18
I0
tp71
Ns(I17
I8
tp72
Ns(I20
I3
tp73
Ns(I21
I2
tp74
(g17
g18
(I231
I20
I25
I255
tp75
Rp76
tp77
s(I2
I1
tp78
Ns(I8
I9
tp79
Ns(I9
I4
tp80
Ns(I5
I1
tp81
Ns(I10
I3
tp82
Ns(I7
I2
tp83
Ns(I12
I2
tp84
Ns(I17
I6
tp85
Ns(I14
I5
tp86
Ns(I13
I3
tp87
Ns(I19
I7
tp88
Ns(I18
I5
tp89
Ns(I7
I1
tp90
Ns(I15
I0
tp91
Ns(I21
I8
tp92
Ns(I20
I0
tp93
Ns(I1
I5
tp94
Ns(I21
I5
tp95
Ns(I3
I6
tp96
Ns(I2
I2
tp97
Ns(I8
I6
tp98
Ns(I4
I1
tp99
Ns(I10
I9
tp100
Ns(I9
I7
tp101
Ns(I6
I4
tp102
Ns(I5
I4
tp103
Ns(I11
I4
tp104
Ns(I10
I4
tp105
Ns(I16
I4
tp106
Ns(I12
I7
tp107
Ns(I11
I9
tp108
Ns(I17
I1
tp109
Ns(I14
I6
tp110
Ns(I13
I6
tp111
Ns(I19
I2
tp112
Ns(I18
I6
tp113
Ns(I0
I5
tp114
Ns(I15
I7
tp115
Ns(I20
I5
tp116
Ns(I1
I0
tp117
Ns(I0
I8
tp118
Ns(I3
I5
tp119
Ns(I2
I7
tp120
Ns(I8
I3
tp121
Ns(I4
I6
tp122
Ns(I9
I2
tp123
Ns(I6
I1
tp124
Ns(I5
I7
tp125
Ns(I11
I3
tp126
Ns(I7
I4
tp127
Ns(I12
I4
tp128
Ns(I15
I9
tp129
Ns(I14
I3
tp130
Ns(I13
I9
tp131
Ns(I19
I1
tp132
Ns(I0
I2
tp133
Ns(I1
I3
tp134
Ns(I4
I8
tp135
Ns(I3
I0
tp136
Ns(I2
I8
tp137
Ns(I9
I8
tp138
Ns(I8
I0
tp139
Ns(I6
I2
tp140
Ns(I14
I9
tp141
Ns(I12
I9
tp142
Ns(I18
I1
tp143
Ns(I21
I1
tp144
Ns(I5
I0
tp145
Ns(I10
I0
tp146
Ns(I12
I3
tp147
Ns(I17
I5
tp148
Ns(I7
I6
tp149
Ns(I13
I2
tp150
Ns(I19
I6
tp151
Ns(I18
I2
tp152
Ns(I15
I3
tp153
Ns(I20
I1
tp154
Ns(I1
I4
tp155
Ns(I7
I7
tp156
Ns(I21
I4
tp157
Ns(I3
I9
tp158
Ns(I2
I3
tp159
Ns(I1
I9
tp160
Ns(I8
I7
tp161
Ns(I4
I2
tp162
Ns(I9
I6
tp163
Ns(I6
I5
tp164
Ns(I5
I3
tp165
Ns(I11
I7
tp166
Ns(I10
I5
tp167
Ns(I16
I5
tp168
Ns(I6
I8
tp169
Ns(I12
I0
tp170
Ns(I11
I8
tp171
Ns(I17
I0
tp172
Ns(I16
I8
tp173
Ns(I14
I7
tp174
Ns(I13
I5
tp175
Ns(I19
I5
tp176
Ns(I18
I7
tp177
Ns(I0
I6
tp178
Ns(I15
I6
tp179
Ns(I20
I6
tp180
Ns(I1
I7
tp181
Ns(I0
I9
tp182
Ns(I21
I7
tp183
(g17
g18
(I212
I115
I13
I255
tp184
Rp185
tp186
s(I3
I4
tp187
Ns(I2
I4
tp188
Ns(I8
I4
tp189
Ns(I5
I9
tp190
Ns(I4
I7
tp191
Ns(I9
I1
tp192
Ns(I6
I6
tp193
Ns(I5
I6
tp194
Ns(I11
I2
tp195
Ns(I10
I6
tp196
Ns(I16
I2
tp197
Ns(I12
I5
tp198
Ns(I17
I3
tp199
Ns(I15
I8
tp200
Ns(I14
I0
tp201
Ns(I13
I8
tp202
Ns(I20
I8
tp203
Ns(I19
I0
tp204
Ns(I18
I8
tp205
Ns(I0
I3
tp206
Ns(I15
I5
tp207
Ns(I1
I2
tp208
Ns(I16
I1
tp209
Ns(I4
I9
tp210
Ns(I3
I3
tp211
Ns(I2
I9
tp212
Ns(I8
I1
tp213
Ns(I4
I4
tp214
Ns(I6
I3
tp215
Ns(I11
I1
tp216
Ns(I16
I7
tp217
Ns(I0
I0
tp218
Ns(I21
I0
tp219
(g17
g18
(I8
I255
I215
I255
tp220
Rp221
tp222
s(I10
I1
tp223
Ns(I17
I4
tp224
Ns(I7
I9
tp225
Ns(I13
I1
tp226
Ns(I19
I9
tp227
Ns(I18
I3
tp228
Ns(I17
I9
tp229
Ns(I15
I2
tp230
Ns(I20
I2
tp231
Ns(I21
I3
tp232
(g17
g18
(I231
I20
I25
I255
tp233
Rp234
tp235
s(I3
I8
tp236
Ns(I2
I0
tp237
Ns(I1
I8
tp238
Ns(I16
I0
tp239
Ns(I4
I3
tp240
Ns(I9
I5
tp241
Ns(I5
I2
tp242
Ns(I11
I6
tp243
Ns(I10
I2
tp244
NssS'time'
p245
F1390395106.611
s.(dp0
S'trigger'
p1
S'7'
p2
sS'matrix'
p3
(dp4
(I7
I3
tp5
Ns(I6
I9
tp6
Ns(I12
I1
tp7
Ns(I16
I6
tp8
Ns(I16
I9
tp9
Ns(I14
I4
tp10
Ns(I13
I4
tp11
Ns(I19
I4
tp12
Ns(I18
I4
tp13
Ns(I0
I7
tp14
Ns(I15
I1
tp15
Ns(I21
I9
tp16
(S'block'
p17
cpygame
__color_constructor
p18
(I9
I225
I210
I255
tp19
Rp20
tp21
s(I20
I7
tp22
Ns(I1
I6
tp23
Ns(I21
I6
tp24
Ns(I3
I7
tp25
Ns(I2
I5
tp26
Ns(I8
I5
tp27
Ns(I5
I8
tp28
Ns(I4
I0
tp29
Ns(I10
I8
tp30
Ns(I9
I0
tp31
Ns(I6
I7
tp32
Ns(I5
I5
tp33
Ns(I11
I5
tp34
Ns(I10
I7
tp35
Ns(I16
I3
tp36
Ns(I17
I7
tp37
Ns(I12
I6
tp38
Ns(I17
I2
tp39
Ns(I14
I1
tp40
Ns(I13
I7
tp41
Ns(I20
I9
tp42
(g17
g18
(I9
I225
I210
I255
tp43
Rp44
tp45
s(I19
I3
tp46
Ns(I18
I9
tp47
Ns(I0
I4
tp48
Ns(I15
I4
tp49
Ns(I20
I4
tp50
(g17
g18
(I184
I238
I36
I255
tp51
Rp52
tp53
s(I1
I1
tp54
Ns(I3
I2
tp55
Ns(I2
I6
tp56
Ns(I8
I2
tp57
Ns(I4
I5
tp58
Ns(I9
I3
tp59
Ns(I6
I0
tp60
Ns(I11
I0
tp61
Ns(I7
I5
tp62
Ns(I16
I5
tp63
Ns(I14
I2
tp64
Ns(I0
I1
tp65
Ns(I3
I1
tp66
Ns(I9
I9
tp67
Ns(I7
I8
tp68
Ns(I14
I8
tp69
Ns(I13
I0
tp70
Ns(I12
I8
tp71
Ns(I19
I8
tp72
Ns(I18
I0
tp73
Ns(I17
I8
tp74
Ns(I20
I3
tp75
Ns(I21
I2
tp76
(g17
g18
(I231
I20
I25
I255
tp77
Rp78
tp79
s(I2
I1
tp80
Ns(I8
I9
tp81
Ns(I9
I4
tp82
Ns(I5
I1
tp83
Ns(I10
I3
tp84
Ns(I7
I2
tp85
Ns(I12
I2
tp86
Ns(I17
I6
tp87
Ns(I14
I5
tp88
Ns(I13
I3
tp89
Ns(I19
I7
tp90
Ns(I18
I5
tp91
Ns(I16
I4
tp92
Ns(I15
I0
tp93
Ns(I21
I8
tp94
Ns(I20
I0
tp95
Ns(I1
I5
tp96
Ns(I21
I5
tp97
(g17
g18
(I184
I238
I36
I255
tp98
Rp99
tp100
s(I3
I6
tp101
Ns(I2
I2
tp102
Ns(I8
I6
tp103
Ns(I4
I1
tp104
Ns(I10
I9
tp105
Ns(I9
I7
tp106
Ns(I6
I4
tp107
Ns(I5
I4
tp108
Ns(I11
I4
tp109
Ns(I10
I4
tp110
Ns(I7
I1
tp111
Ns(I12
I7
tp112
Ns(I11
I9
tp113
Ns(I17
I1
tp114
Ns(I14
I6
tp115
Ns(I13
I6
tp116
Ns(I19
I2
tp117
Ns(I18
I6
tp118
Ns(I0
I5
tp119
Ns(I15
I7
tp120
Ns(I20
I5
tp121
(g17
g18
(I184
I238
I36
I255
tp122
Rp123
tp124
s(I1
I0
tp125
Ns(I0
I8
tp126
Ns(I3
I5
tp127
Ns(I2
I7
tp128
Ns(I8
I3
tp129
Ns(I4
I6
tp130
Ns(I9
I2
tp131
Ns(I6
I1
tp132
Ns(I5
I7
tp133
Ns(I11
I3
tp134
Ns(I7
I4
tp135
Ns(I12
I4
tp136
Ns(I15
I9
tp137
Ns(I14
I3
tp138
Ns(I13
I9
tp139
Ns(I19
I1
tp140
Ns(I0
I2
tp141
Ns(I1
I3
tp142
Ns(I4
I8
tp143
Ns(I3
I0
tp144
Ns(I2
I8
tp145
Ns(I9
I8
tp146
Ns(I8
I0
tp147
Ns(I6
I2
tp148
Ns(I14
I9
tp149
Ns(I12
I9
tp150
Ns(I18
I1
tp151
Ns(I16
I0
tp152
Ns(I21
I1
tp153
Ns(I5
I0
tp154
Ns(I10
I0
tp155
Ns(I12
I3
tp156
Ns(I17
I5
tp157
Ns(I7
I6
tp158
Ns(I13
I2
tp159
Ns(I19
I6
tp160
Ns(I18
I2
tp161
Ns(I15
I3
tp162
Ns(I20
I1
tp163
Ns(I1
I4
tp164
Ns(I16
I2
tp165
Ns(I21
I4
tp166
(g17
g18
(I184
I238
I36
I255
tp167
Rp168
tp169
s(I3
I9
tp170
Ns(I2
I3
tp171
Ns(I1
I9
tp172
Ns(I8
I7
tp173
Ns(I4
I2
tp174
Ns(I9
I6
tp175
Ns(I6
I5
tp176
Ns(I5
I3
tp177
Ns(I11
I7
tp178
Ns(I10
I5
tp179
Ns(I7
I0
tp180
Ns(I6
I8
tp181
Ns(I12
I0
tp182
Ns(I11
I8
tp183
Ns(I17
I0
tp184
Ns(I16
I8
tp185
Ns(I14
I7
tp186
Ns(I13
I5
tp187
Ns(I19
I5
tp188
Ns(I18
I7
tp189
Ns(I0
I6
tp190
Ns(I15
I6
tp191
Ns(I20
I6
tp192
Ns(I1
I7
tp193
Ns(I0
I9
tp194
Ns(I21
I7
tp195
(g17
g18
(I212
I115
I13
I255
tp196
Rp197
tp198
s(I3
I4
tp199
Ns(I2
I4
tp200
Ns(I8
I4
tp201
Ns(I5
I9
tp202
Ns(I4
I7
tp203
Ns(I9
I1
tp204
Ns(I6
I6
tp205
Ns(I5
I6
tp206
Ns(I11
I2
tp207
Ns(I10
I6
tp208
Ns(I7
I7
tp209
Ns(I12
I5
tp210
Ns(I17
I3
tp211
Ns(I15
I8
tp212
Ns(I14
I0
tp213
Ns(I13
I8
tp214
Ns(I20
I8
tp215
Ns(I19
I0
tp216
Ns(I18
I8
tp217
Ns(I0
I3
tp218
Ns(I15
I5
tp219
Ns(I1
I2
tp220
Ns(I16
I1
tp221
Ns(I4
I9
tp222
Ns(I3
I3
tp223
Ns(I2
I9
tp224
Ns(I8
I1
tp225
Ns(I4
I4
tp226
Ns(I6
I3
tp227
Ns(I11
I1
tp228
Ns(I16
I7
tp229
Ns(I0
I0
tp230
Ns(I21
I0
tp231
(g17
g18
(I8
I255
I215
I255
tp232
Rp233
tp234
s(I10
I1
tp235
Ns(I17
I4
tp236
Ns(I7
I9
tp237
Ns(I13
I1
tp238
Ns(I19
I9
tp239
Ns(I18
I3
tp240
Ns(I17
I9
tp241
Ns(I15
I2
tp242
Ns(I20
I2
tp243
Ns(I21
I3
tp244
(g17
g18
(I231
I20
I25
I255
tp245
Rp246
tp247
s(I3
I8
tp248
Ns(I2
I0
tp249
Ns(I1
I8
tp250
Ns(I8
I8
tp251
Ns(I4
I3
tp252
Ns(I9
I5
tp253
Ns(I5
I2
tp254
Ns(I11
I6
tp255
Ns(I10
I2
tp256
NssS'time'
p257
F1390395110.787
s.(dp0
S'trigger'
p1
S'7'
p2
sS'matrix'
p3
(dp4
(I7
I3
tp5
Ns(I6
I9
tp6
Ns(I12
I1
tp7
Ns(I16
I6
tp8
Ns(I16
I9
tp9
Ns(I14
I4
tp10
Ns(I13
I4
tp11
Ns(I19
I4
tp12
Ns(I18
I4
tp13
Ns(I0
I7
tp14
Ns(I15
I1
tp15
Ns(I21
I9
tp16
(S'block'
p17
cpygame
__color_constructor
p18
(I9
I225
I210
I255
tp19
Rp20
tp21
s(I20
I7
tp22
Ns(I1
I6
tp23
Ns(I21
I6
tp24
Ns(I3
I7
tp25
Ns(I2
I5
tp26
Ns(I8
I5
tp27
Ns(I5
I8
tp28
Ns(I4
I0
tp29
Ns(I10
I8
tp30
Ns(I9
I0
tp31
Ns(I6
I7
tp32
Ns(I5
I5
tp33
Ns(I11
I5
tp34
Ns(I10
I7
tp35
Ns(I16
I3
tp36
Ns(I17
I7
tp37
Ns(I12
I6
tp38
Ns(I8
I8
tp39
Ns(I17
I2
tp40
Ns(I14
I1
tp41
Ns(I13
I7
tp42
Ns(I20
I9
tp43
(g17
g18
(I9
I225
I210
I255
tp44
Rp45
tp46
s(I19
I3
tp47
Ns(I18
I9
tp48
Ns(I0
I4
tp49
Ns(I15
I4
tp50
Ns(I20
I4
tp51
(g17
g18
(I184
I238
I36
I255
tp52
Rp53
tp54
s(I1
I1
tp55
Ns(I3
I2
tp56
Ns(I2
I6
tp57
Ns(I8
I2
tp58
Ns(I4
I5
tp59
Ns(I9
I3
tp60
Ns(I6
I0
tp61
Ns(I11
I0
tp62
Ns(I7
I5
tp63
Ns(I7
I0
tp64
Ns(I14
I2
tp65
Ns(I0
I1
tp66
Ns(I3
I1
tp67
Ns(I9
I9
tp68
Ns(I7
I8
tp69
Ns(I14
I8
tp70
Ns(I13
I0
tp71
Ns(I12
I8
tp72
Ns(I19
I8
tp73
Ns(I18
I0
tp74
(g17
g18
(I23
I30
I248
I255
tp75
Rp76
tp77
s(I17
I8
tp78
Ns(I20
I3
tp79
Ns(I21
I2
tp80
(g17
g18
(I231
I20
I25
I255
tp81
Rp82
tp83
s(I2
I1
tp84
Ns(I8
I9
tp85
Ns(I9
I4
tp86
Ns(I5
I1
tp87
Ns(I10
I3
tp88
Ns(I7
I2
tp89
Ns(I12
I2
tp90
Ns(I17
I6
tp91
Ns(I14
I5
tp92
Ns(I13
I3
tp93
Ns(I19
I7
tp94
Ns(I18
I5
tp95
Ns(I7
I1
tp96
Ns(I15
I0
tp97
Ns(I21
I8
tp98
Ns(I20
I0
tp99
(g17
g18
(I23
I30
I248
I255
tp100
Rp101
tp102
s(I1
I5
tp103
Ns(I21
I5
tp104
(g17
g18
(I184
I238
I36
I255
tp105
Rp106
tp107
s(I3
I6
tp108
Ns(I2
I2
tp109
Ns(I8
I6
tp110
Ns(I4
I1
tp111
Ns(I10
I9
tp112
Ns(I9
I7
tp113
Ns(I6
I4
tp114
Ns(I5
I4
tp115
Ns(I11
I4
tp116
Ns(I10
I4
tp117
Ns(I16
I4
tp118
Ns(I12
I7
tp119
Ns(I11
I9
tp120
Ns(I17
I1
tp121
Ns(I14
I6
tp122
Ns(I13
I6
tp123
Ns(I19
I2
tp124
Ns(I18
I6
tp125
Ns(I0
I5
tp126
Ns(I15
I7
tp127
Ns(I20
I5
tp128
(g17
g18
(I184
I238
I36
I255
tp129
Rp130
tp131
s(I1
I0
tp132
Ns(I0
I8
tp133
Ns(I3
I5
tp134
Ns(I2
I7
tp135
Ns(I8
I3
tp136
Ns(I4
I6
tp137
Ns(I9
I2
tp138
Ns(I6
I1
tp139
Ns(I5
I7
tp140
Ns(I11
I3
tp141
Ns(I7
I4
tp142
Ns(I12
I4
tp143
Ns(I15
I9
tp144
Ns(I14
I3
tp145
Ns(I13
I9
tp146
Ns(I19
I1
tp147
Ns(I0
I2
tp148
Ns(I1
I3
tp149
Ns(I4
I8
tp150
Ns(I3
I0
tp151
Ns(I2
I8
tp152
Ns(I9
I8
tp153
Ns(I8
I0
tp154
Ns(I6
I2
tp155
Ns(I14
I9
tp156
Ns(I12
I9
tp157
Ns(I18
I1
tp158
Ns(I21
I1
tp159
Ns(I5
I0
tp160
Ns(I10
I0
tp161
Ns(I12
I3
tp162
Ns(I17
I5
tp163
Ns(I7
I6
tp164
Ns(I13
I2
tp165
Ns(I19
I6
tp166
Ns(I18
I2
tp167
Ns(I15
I3
tp168
Ns(I20
I1
tp169
Ns(I1
I4
tp170
Ns(I7
I7
tp171
Ns(I21
I4
tp172
(g17
g18
(I184
I238
I36
I255
tp173
Rp174
tp175
s(I3
I9
tp176
Ns(I2
I3
tp177
Ns(I1
I9
tp178
Ns(I8
I7
tp179
Ns(I4
I2
tp180
Ns(I9
I6
tp181
Ns(I6
I5
tp182
Ns(I5
I3
tp183
Ns(I11
I7
tp184
Ns(I10
I5
tp185
Ns(I16
I5
tp186
Ns(I6
I8
tp187
Ns(I12
I0
tp188
Ns(I11
I8
tp189
Ns(I17
I0
tp190
(g17
g18
(I23
I30
I248
I255
tp191
Rp192
tp193
s(I16
I8
tp194
Ns(I14
I7
tp195
Ns(I13
I5
tp196
Ns(I19
I5
tp197
Ns(I18
I7
tp198
Ns(I0
I6
tp199
Ns(I15
I6
tp200
Ns(I20
I6
tp201
Ns(I1
I7
tp202
Ns(I0
I9
tp203
Ns(I21
I7
tp204
(g17
g18
(I212
I115
I13
I255
tp205
Rp206
tp207
s(I3
I4
tp208
Ns(I2
I4
tp209
Ns(I8
I4
tp210
Ns(I5
I9
tp211
Ns(I4
I7
tp212
Ns(I9
I1
tp213
Ns(I6
I6
tp214
Ns(I5
I6
tp215
Ns(I11
I2
tp216
Ns(I10
I6
tp217
Ns(I16
I2
tp218
Ns(I12
I5
tp219
Ns(I17
I3
tp220
Ns(I15
I8
tp221
Ns(I14
I0
tp222
Ns(I13
I8
tp223
Ns(I20
I8
tp224
Ns(I19
I0
tp225
(g17
g18
(I23
I30
I248
I255
tp226
Rp227
tp228
s(I18
I8
tp229
Ns(I0
I3
tp230
Ns(I15
I5
tp231
Ns(I1
I2
tp232
Ns(I16
I1
tp233
Ns(I4
I9
tp234
Ns(I3
I3
tp235
Ns(I2
I9
tp236
Ns(I8
I1
tp237
Ns(I4
I4
tp238
Ns(I6
I3
tp239
Ns(I11
I1
tp240
Ns(I16
I7
tp241
Ns(I0
I0
tp242
Ns(I21
I0
tp243
(g17
g18
(I8
I255
I215
I255
tp244
Rp245
tp246
s(I10
I1
tp247
Ns(I17
I4
tp248
Ns(I7
I9
tp249
Ns(I13
I1
tp250
Ns(I19
I9
tp251
Ns(I18
I3
tp252
Ns(I17
I9
tp253
Ns(I15
I2
tp254
Ns(I20
I2
tp255
Ns(I21
I3
tp256
(g17
g18
(I231
I20
I25
I255
tp257
Rp258
tp259
s(I3
I8
tp260
Ns(I2
I0
tp261
Ns(I1
I8
tp262
Ns(I16
I0
tp263
Ns(I4
I3
tp264
Ns(I9
I5
tp265
Ns(I5
I2
tp266
Ns(I11
I6
tp267
Ns(I10
I2
tp268
NssS'time'
p269
F1390395114.378
s.(dp0
S'trigger'
p1
S'7'
p2
sS'matrix'
p3
(dp4
(I7
I3
tp5
Ns(I6
I9
tp6
Ns(I12
I1
tp7
Ns(I16
I6
tp8
Ns(I16
I9
tp9
Ns(I14
I4
tp10
Ns(I13
I4
tp11
Ns(I19
I4
tp12
Ns(I18
I4
tp13
Ns(I0
I7
tp14
Ns(I15
I1
tp15
Ns(I21
I9
tp16
(S'block'
p17
cpygame
__color_constructor
p18
(I9
I225
I210
I255
tp19
Rp20
tp21
s(I20
I7
tp22
Ns(I1
I6
tp23
Ns(I21
I6
tp24
Ns(I3
I7
tp25
Ns(I2
I5
tp26
Ns(I8
I5
tp27
Ns(I5
I8
tp28
Ns(I4
I0
tp29
Ns(I10
I8
tp30
Ns(I9
I0
tp31
Ns(I6
I7
tp32
Ns(I5
I5
tp33
Ns(I11
I5
tp34
Ns(I10
I7
tp35
Ns(I16
I3
tp36
Ns(I17
I7
tp37
Ns(I12
I6
tp38
Ns(I17
I2
tp39
Ns(I14
I1
tp40
Ns(I13
I7
tp41
Ns(I20
I9
tp42
(g17
g18
(I9
I225
I210
I255
tp43
Rp44
tp45
s(I19
I3
tp46
Ns(I18
I9
tp47
Ns(I0
I4
tp48
Ns(I15
I4
tp49
Ns(I20
I4
tp50
(g17
g18
(I184
I238
I36
I255
tp51
Rp52
tp53
s(I1
I1
tp54
Ns(I3
I2
tp55
Ns(I2
I6
tp56
Ns(I8
I2
tp57
Ns(I4
I5
tp58
Ns(I9
I3
tp59
Ns(I6
I0
tp60
Ns(I11
I0
tp61
Ns(I7
I5
tp62
Ns(I16
I5
tp63
Ns(I14
I2
tp64
Ns(I0
I1
tp65
Ns(I3
I1
tp66
Ns(I9
I9
tp67
Ns(I7
I8
tp68
Ns(I14
I8
tp69
Ns(I13
I0
tp70
Ns(I12
I8
tp71
Ns(I19
I8
tp72
Ns(I18
I0
tp73
(g17
g18
(I23
I30
I248
I255
tp74
Rp75
tp76
s(I17
I8
tp77
Ns(I20
I3
tp78
Ns(I21
I2
tp79
(g17
g18
(I231
I20
I25
I255
tp80
Rp81
tp82
s(I2
I1
tp83
Ns(I8
I9
tp84
Ns(I9
I4
tp85
Ns(I5
I1
tp86
Ns(I10
I3
tp87
Ns(I7
I2
tp88
Ns(I12
I2
tp89
Ns(I17
I6
tp90
Ns(I14
I5
tp91
Ns(I13
I3
tp92
Ns(I19
I7
tp93
Ns(I18
I5
tp94
Ns(I16
I4
tp95
Ns(I15
I0
tp96
Ns(I21
I8
tp97
Ns(I20
I0
tp98
(g17
g18
(I23
I30
I248
I255
tp99
Rp100
tp101
s(I1
I5
tp102
Ns(I21
I5
tp103
(g17
g18
(I184
I238
I36
I255
tp104
Rp105
tp106
s(I3
I6
tp107
Ns(I2
I2
tp108
Ns(I8
I6
tp109
Ns(I4
I1
tp110
Ns(I10
I9
tp111
Ns(I9
I7
tp112
Ns(I6
I4
tp113
Ns(I5
I4
tp114
Ns(I11
I4
tp115
Ns(I10
I4
tp116
Ns(I7
I1
tp117
Ns(I12
I7
tp118
Ns(I11
I9
tp119
Ns(I17
I1
tp120
Ns(I14
I6
tp121
Ns(I13
I6
tp122
Ns(I19
I2
tp123
Ns(I18
I6
tp124
Ns(I0
I5
tp125
Ns(I15
I7
tp126
Ns(I20
I5
tp127
(g17
g18
(I184
I238
I36
I255
tp128
Rp129
tp130
s(I1
I0
tp131
Ns(I0
I8
tp132
Ns(I3
I5
tp133
Ns(I2
I7
tp134
Ns(I8
I3
tp135
Ns(I4
I6
tp136
Ns(I9
I2
tp137
Ns(I6
I1
tp138
Ns(I5
I7
tp139
Ns(I11
I3
tp140
Ns(I7
I4
tp141
Ns(I12
I4
tp142
Ns(I15
I9
tp143
Ns(I14
I3
tp144
Ns(I13
I9
tp145
Ns(I19
I1
tp146
(g17
g18
(I23
I39
I242
I255
tp147
Rp148
tp149
s(I0
I2
tp150
Ns(I1
I3
tp151
Ns(I4
I8
tp152
Ns(I3
I0
tp153
Ns(I2
I8
tp154
Ns(I9
I8
tp155
Ns(I8
I0
tp156
Ns(I6
I2
tp157
Ns(I14
I9
tp158
Ns(I12
I9
tp159
Ns(I18
I1
tp160
(g17
g18
(I23
I39
I242
I255
tp161
Rp162
tp163
s(I16
I0
tp164
Ns(I21
I1
tp165
(g17
g18
(I23
I39
I242
I255
tp166
Rp167
tp168
s(I5
I0
tp169
Ns(I10
I0
tp170
Ns(I12
I3
tp171
Ns(I17
I5
tp172
Ns(I7
I6
tp173
Ns(I13
I2
tp174
Ns(I19
I6
tp175
Ns(I18
I2
tp176
Ns(I15
I3
tp177
Ns(I20
I1
tp178
(g17
g18
(I23
I39
I242
I255
tp179
Rp180
tp181
s(I1
I4
tp182
Ns(I16
I2
tp183
Ns(I21
I4
tp184
(g17
g18
(I184
I238
I36
I255
tp185
Rp186
tp187
s(I3
I9
tp188
Ns(I2
I3
tp189
Ns(I1
I9
tp190
Ns(I8
I7
tp191
Ns(I4
I2
tp192
Ns(I9
I6
tp193
Ns(I6
I5
tp194
Ns(I5
I3
tp195
Ns(I11
I7
tp196
Ns(I10
I5
tp197
Ns(I7
I0
tp198
Ns(I6
I8
tp199
Ns(I12
I0
tp200
Ns(I11
I8
tp201
Ns(I17
I0
tp202
(g17
g18
(I23
I30
I248
I255
tp203
Rp204
tp205
s(I16
I8
tp206
Ns(I14
I7
tp207
Ns(I13
I5
tp208
Ns(I19
I5
tp209
Ns(I18
I7
tp210
Ns(I0
I6
tp211
Ns(I15
I6
tp212
Ns(I20
I6
tp213
Ns(I1
I7
tp214
Ns(I0
I9
tp215
Ns(I21
I7
tp216
(g17
g18
(I212
I115
I13
I255
tp217
Rp218
tp219
s(I3
I4
tp220
Ns(I2
I4
tp221
Ns(I8
I4
tp222
Ns(I5
I9
tp223
Ns(I4
I7
tp224
Ns(I9
I1
tp225
Ns(I6
I6
tp226
Ns(I5
I6
tp227
Ns(I11
I2
tp228
Ns(I10
I6
tp229
Ns(I7
I7
tp230
Ns(I12
I5
tp231
Ns(I17
I3
tp232
Ns(I15
I8
tp233
Ns(I14
I0
tp234
Ns(I13
I8
tp235
Ns(I20
I8
tp236
Ns(I19
I0
tp237
(g17
g18
(I23
I30
I248
I255
tp238
Rp239
tp240
s(I18
I8
tp241
Ns(I0
I3
tp242
Ns(I15
I5
tp243
Ns(I1
I2
tp244
Ns(I16
I1
tp245
Ns(I4
I9
tp246
Ns(I3
I3
tp247
Ns(I2
I9
tp248
Ns(I8
I1
tp249
Ns(I4
I4
tp250
Ns(I6
I3
tp251
Ns(I11
I1
tp252
Ns(I16
I7
tp253
Ns(I0
I0
tp254
Ns(I21
I0
tp255
(g17
g18
(I8
I255
I215
I255
tp256
Rp257
tp258
s(I10
I1
tp259
Ns(I17
I4
tp260
Ns(I7
I9
tp261
Ns(I13
I1
tp262
Ns(I19
I9
tp263
Ns(I18
I3
tp264
Ns(I17
I9
tp265
Ns(I15
I2
tp266
Ns(I20
I2
tp267
Ns(I21
I3
tp268
(g17
g18
(I231
I20
I25
I255
tp269
Rp270
tp271
s(I3
I8
tp272
Ns(I2
I0
tp273
Ns(I1
I8
tp274
Ns(I8
I8
tp275
Ns(I4
I3
tp276
Ns(I9
I5
tp277
Ns(I5
I2
tp278
Ns(I11
I6
tp279
Ns(I10
I2
tp280
NssS'time'
p281
F1390395118.177
s.(dp0
S'trigger'
p1
S'7'
p2
sS'matrix'
p3
(dp4
(I7
I3
tp5
Ns(I6
I9
tp6
Ns(I12
I1
tp7
Ns(I16
I6
tp8
Ns(I16
I9
tp9
Ns(I14
I4
tp10
Ns(I13
I4
tp11
Ns(I19
I4
tp12
Ns(I18
I4
tp13
Ns(I0
I7
tp14
Ns(I15
I1
tp15
Ns(I21
I9
tp16
(S'block'
p17
cpygame
__color_constructor
p18
(I9
I225
I210
I255
tp19
Rp20
tp21
s(I20
I7
tp22
(g17
g18
(I235
I25
I22
I255
tp23
Rp24
tp25
s(I1
I6
tp26
Ns(I21
I6
tp27
(g17
g18
(I235
I25
I22
I255
tp28
Rp29
tp30
s(I3
I7
tp31
Ns(I2
I5
tp32
Ns(I8
I5
tp33
Ns(I5
I8
tp34
Ns(I4
I0
tp35
Ns(I10
I8
tp36
Ns(I9
I0
tp37
Ns(I6
I7
tp38
Ns(I5
I5
tp39
Ns(I11
I5
tp40
Ns(I10
I7
tp41
Ns(I16
I3
tp42
Ns(I17
I7
tp43
Ns(I12
I6
tp44
Ns(I8
I8
tp45
Ns(I17
I2
tp46
Ns(I14
I1
tp47
Ns(I13
I7
tp48
Ns(I20
I9
tp49
(g17
g18
(I9
I225
I210
I255
tp50
Rp51
tp52
s(I19
I3
tp53
Ns(I18
I9
tp54
Ns(I0
I4
tp55
Ns(I15
I4
tp56
Ns(I20
I4
tp57
(g17
g18
(I184
I238
I36
I255
tp58
Rp59
tp60
s(I1
I1
tp61
Ns(I3
I2
tp62
Ns(I2
I6
tp63
Ns(I8
I2
tp64
Ns(I4
I5
tp65
Ns(I9
I3
tp66
Ns(I6
I0
tp67
Ns(I11
I0
tp68
Ns(I7
I5
tp69
Ns(I7
I0
tp70
Ns(I14
I2
tp71
Ns(I0
I1
tp72
Ns(I3
I1
tp73
Ns(I9
I9
tp74
Ns(I7
I8
tp75
Ns(I14
I8
tp76
Ns(I13
I0
tp77
Ns(I12
I8
tp78
Ns(I19
I8
tp79
Ns(I18
I0
tp80
(g17
g18
(I23
I30
I248
I255
tp81
Rp82
tp83
s(I17
I8
tp84
Ns(I20
I3
tp85
Ns(I21
I2
tp86
(g17
g18
(I231
I20
I25
I255
tp87
Rp88
tp89
s(I2
I1
tp90
Ns(I8
I9
tp91
Ns(I9
I4
tp92
Ns(I5
I1
tp93
Ns(I10
I3
tp94
Ns(I7
I2
tp95
Ns(I12
I2
tp96
Ns(I17
I6
tp97
Ns(I14
I5
tp98
Ns(I13
I3
tp99
Ns(I19
I7
tp100
(g17
g18
(I235
I25
I22
I255
tp101
Rp102
tp103
s(I18
I5
tp104
Ns(I7
I1
tp105
Ns(I15
I0
tp106
Ns(I21
I8
tp107
Ns(I20
I0
tp108
(g17
g18
(I23
I30
I248
I255
tp109
Rp110
tp111
s(I1
I5
tp112
Ns(I21
I5
tp113
(g17
g18
(I184
I238
I36
I255
tp114
Rp115
tp116
s(I3
I6
tp117
Ns(I2
I2
tp118
Ns(I8
I6
tp119
Ns(I4
I1
tp120
Ns(I10
I9
tp121
Ns(I9
I7
tp122
Ns(I6
I4
tp123
Ns(I5
I4
tp124
Ns(I11
I4
tp125
Ns(I10
I4
tp126
Ns(I16
I4
tp127
Ns(I12
I7
tp128
Ns(I11
I9
tp129
Ns(I17
I1
tp130
Ns(I14
I6
tp131
Ns(I13
I6
tp132
Ns(I19
I2
tp133
Ns(I18
I6
tp134
Ns(I0
I5
tp135
Ns(I15
I7
tp136
Ns(I20
I5
tp137
(g17
g18
(I184
I238
I36
I255
tp138
Rp139
tp140
s(I1
I0
tp141
Ns(I0
I8
tp142
Ns(I3
I5
tp143
Ns(I2
I7
tp144
Ns(I8
I3
tp145
Ns(I4
I6
tp146
Ns(I9
I2
tp147
Ns(I6
I1
tp148
Ns(I5
I7
tp149
Ns(I11
I3
tp150
Ns(I7
I4
tp151
Ns(I12
I4
tp152
Ns(I15
I9
tp153
Ns(I14
I3
tp154
Ns(I13
I9
tp155
Ns(I19
I1
tp156
(g17
g18
(I23
I39
I242
I255
tp157
Rp158
tp159
s(I0
I2
tp160
Ns(I1
I3
tp161
Ns(I4
I8
tp162
Ns(I3
I0
tp163
Ns(I2
I8
tp164
Ns(I9
I8
tp165
Ns(I8
I0
tp166
Ns(I6
I2
tp167
Ns(I14
I9
tp168
Ns(I12
I9
tp169
Ns(I18
I1
tp170
(g17
g18
(I23
I39
I242
I255
tp171
Rp172
tp173
s(I21
I1
tp174
(g17
g18
(I23
I39
I242
I255
tp175
Rp176
tp177
s(I5
I0
tp178
Ns(I10
I0
tp179
Ns(I12
I3
tp180
Ns(I17
I5
tp181
Ns(I7
I6
tp182
Ns(I13
I2
tp183
Ns(I19
I6
tp184
Ns(I18
I2
tp185
Ns(I15
I3
tp186
Ns(I20
I1
tp187
(g17
g18
(I23
I39
I242
I255
tp188
Rp189
tp190
s(I1
I4
tp191
Ns(I7
I7
tp192
Ns(I21
I4
tp193
(g17
g18
(I184
I238
I36
I255
tp194
Rp195
tp196
s(I3
I9
tp197
Ns(I2
I3
tp198
Ns(I1
I9
tp199
Ns(I8
I7
tp200
Ns(I4
I2
tp201
Ns(I9
I6
tp202
Ns(I6
I5
tp203
Ns(I5
I3
tp204
Ns(I11
I7
tp205
Ns(I10
I5
tp206
Ns(I16
I5
tp207
Ns(I6
I8
tp208
Ns(I12
I0
tp209
Ns(I11
I8
tp210
Ns(I17
I0
tp211
(g17
g18
(I23
I30
I248
I255
tp212
Rp213
tp214
s(I16
I8
tp215
Ns(I14
I7
tp216
Ns(I13
I5
tp217
Ns(I19
I5
tp218
Ns(I18
I7
tp219
Ns(I0
I6
tp220
Ns(I15
I6
tp221
Ns(I20
I6
tp222
(g17
g18
(I235
I25
I22
I255
tp223
Rp224
tp225
s(I1
I7
tp226
Ns(I0
I9
tp227
Ns(I21
I7
tp228
(g17
g18
(I212
I115
I13
I255
tp229
Rp230
tp231
s(I3
I4
tp232
Ns(I2
I4
tp233
Ns(I8
I4
tp234
Ns(I5
I9
tp235
Ns(I4
I7
tp236
Ns(I9
I1
tp237
Ns(I6
I6
tp238
Ns(I5
I6
tp239
Ns(I11
I2
tp240
Ns(I10
I6
tp241
Ns(I16
I2
tp242
Ns(I12
I5
tp243
Ns(I17
I3
tp244
Ns(I15
I8
tp245
Ns(I14
I0
tp246
Ns(I13
I8
tp247
Ns(I20
I8
tp248
Ns(I19
I0
tp249
(g17
g18
(I23
I30
I248
I255
tp250
Rp251
tp252
s(I18
I8
tp253
Ns(I0
I3
tp254
Ns(I15
I5
tp255
Ns(I1
I2
tp256
Ns(I16
I1
tp257
Ns(I4
I9
tp258
Ns(I3
I3
tp259
Ns(I2
I9
tp260
Ns(I8
I1
tp261
Ns(I4
I4
tp262
Ns(I6
I3
tp263
Ns(I11
I1
tp264
Ns(I16
I7
tp265
Ns(I0
I0
tp266
Ns(I21
I0
tp267
(g17
g18
(I8
I255
I215
I255
tp268
Rp269
tp270
s(I10
I1
tp271
Ns(I17
I4
tp272
Ns(I7
I9
tp273
Ns(I13
I1
tp274
Ns(I19
I9
tp275
Ns(I18
I3
tp276
Ns(I17
I9
tp277
Ns(I15
I2
tp278
Ns(I20
I2
tp279
Ns(I21
I3
tp280
(g17
g18
(I231
I20
I25
I255
tp281
Rp282
tp283
s(I3
I8
tp284
Ns(I2
I0
tp285
Ns(I1
I8
tp286
Ns(I16
I0
tp287
Ns(I4
I3
tp288
Ns(I9
I5
tp289
Ns(I5
I2
tp290
Ns(I11
I6
tp291
Ns(I10
I2
tp292
NssS'time'
p293
F1390395122.184
s.(dp0
S'trigger'
p1
S'7'
p2
sS'matrix'
p3
(dp4
(I7
I3
tp5
Ns(I6
I9
tp6
Ns(I12
I1
tp7
Ns(I16
I6
tp8
Ns(I16
I9
tp9
(S'block'
p10
cpygame
__color_constructor
p11
(I25
I33
I224
I255
tp12
Rp13
tp14
s(I14
I4
tp15
Ns(I13
I4
tp16
Ns(I19
I4
tp17
Ns(I18
I4
tp18
Ns(I0
I7
tp19
Ns(I15
I1
tp20
Ns(I21
I9
tp21
(g10
g11
(I9
I225
I210
I255
tp22
Rp23
tp24
s(I20
I7
tp25
(g10
g11
(I235
I25
I22
I255
tp26
Rp27
tp28
s(I1
I6
tp29
Ns(I21
I6
tp30
(g10
g11
(I235
I25
I22
I255
tp31
Rp32
tp33
s(I3
I7
tp34
Ns(I2
I5
tp35
Ns(I8
I5
tp36
Ns(I5
I8
tp37
Ns(I4
I0
tp38
Ns(I10
I8
tp39
Ns(I9
I0
tp40
Ns(I6
I7
tp41
Ns(I5
I5
tp42
Ns(I11
I5
tp43
Ns(I10
I7
tp44
Ns(I16
I3
tp45
Ns(I17
I7
tp46
Ns(I12
I6
tp47
Ns(I17
I2
tp48
Ns(I14
I1
tp49
Ns(I13
I7
tp50
Ns(I20
I9
tp51
(g10
g11
(I9
I225
I210
I255
tp52
Rp53
tp54
s(I19
I3
tp55
Ns(I18
I9
tp56
(g10
g11
(I25
I33
I224
I255
tp57
Rp58
tp59
s(I0
I4
tp60
Ns(I15
I4
tp61
Ns(I20
I4
tp62
(g10
g11
(I184
I238
I36
I255
tp63
Rp64
tp65
s(I1
I1
tp66
Ns(I3
I2
tp67
Ns(I2
I6
tp68
Ns(I8
I2
tp69
Ns(I4
I5
tp70
Ns(I9
I3
tp71
Ns(I6
I0
tp72
Ns(I11
I0
tp73
Ns(I7
I5
tp74
Ns(I16
I5
tp75
Ns(I14
I2
tp76
Ns(I0
I1
tp77
Ns(I3
I1
tp78
Ns(I9
I9
tp79
Ns(I7
I8
tp80
Ns(I14
I8
tp81
Ns(I13
I0
tp82
Ns(I12
I8
tp83
Ns(I19
I8
tp84
Ns(I18
I0
tp85
(g10
g11
(I23
I30
I248
I255
tp86
Rp87
tp88
s(I17
I8
tp89
Ns(I20
I3
tp90
Ns(I21
I2
tp91
(g10
g11
(I231
I20
I25
I255
tp92
Rp93
tp94
s(I2
I1
tp95
Ns(I8
I9
tp96
Ns(I9
I4
tp97
Ns(I5
I1
tp98
Ns(I10
I3
tp99
Ns(I7
I2
tp100
Ns(I12
I2
tp101
Ns(I17
I6
tp102
Ns(I14
I5
tp103
Ns(I13
I3
tp104
Ns(I19
I7
tp105
(g10
g11
(I235
I25
I22
I255
tp106
Rp107
tp108
s(I18
I5
tp109
Ns(I16
I4
tp110
Ns(I15
I0
tp111
Ns(I21
I8
tp112
Ns(I20
I0
tp113
(g10
g11
(I23
I30
I248
I255
tp114
Rp115
tp116
s(I1
I5
tp117
Ns(I21
I5
tp118
(g10
g11
(I184
I238
I36
I255
tp119
Rp120
tp121
s(I3
I6
tp122
Ns(I2
I2
tp123
Ns(I8
I6
tp124
Ns(I4
I1
tp125
Ns(I10
I9
tp126
Ns(I9
I7
tp127
Ns(I6
I4
tp128
Ns(I5
I4
tp129
Ns(I11
I4
tp130
Ns(I10
I4
tp131
Ns(I7
I1
tp132
Ns(I12
I7
tp133
Ns(I11
I9
tp134
Ns(I17
I1
tp135
Ns(I14
I6
tp136
Ns(I13
I6
tp137
Ns(I19
I2
tp138
Ns(I18
I6
tp139
Ns(I0
I5
tp140
Ns(I15
I7
tp141
Ns(I20
I5
tp142
(g10
g11
(I184
I238
I36
I255
tp143
Rp144
tp145
s(I1
I0
tp146
Ns(I0
I8
tp147
Ns(I3
I5
tp148
Ns(I2
I7
tp149
Ns(I8
I3
tp150
Ns(I4
I6
tp151
Ns(I9
I2
tp152
Ns(I6
I1
tp153
Ns(I5
I7
tp154
Ns(I11
I3
tp155
Ns(I7
I4
tp156
Ns(I12
I4
tp157
Ns(I15
I9
tp158
Ns(I14
I3
tp159
Ns(I13
I9
tp160
Ns(I19
I1
tp161
(g10
g11
(I23
I39
I242
I255
tp162
Rp163
tp164
s(I0
I2
tp165
Ns(I1
I3
tp166
Ns(I4
I8
tp167
Ns(I3
I0
tp168
Ns(I2
I8
tp169
Ns(I9
I8
tp170
Ns(I8
I0
tp171
Ns(I6
I2
tp172
Ns(I14
I9
tp173
Ns(I12
I9
tp174
Ns(I18
I1
tp175
(g10
g11
(I23
I39
I242
I255
tp176
Rp177
tp178
s(I16
I0
tp179
Ns(I21
I1
tp180
(g10
g11
(I23
I39
I242
I255
tp181
Rp182
tp183
s(I5
I0
tp184
Ns(I10
I0
tp185
Ns(I12
I3
tp186
Ns(I17
I5
tp187
Ns(I7
I6
tp188
Ns(I13
I2
tp189
Ns(I19
I6
tp190
Ns(I18
I2
tp191
Ns(I15
I3
tp192
Ns(I20
I1
tp193
(g10
g11
(I23
I39
I242
I255
tp194
Rp195
tp196
s(I1
I4
tp197
Ns(I16
I2
tp198
Ns(I21
I4
tp199
(g10
g11
(I184
I238
I36
I255
tp200
Rp201
tp202
s(I3
I9
tp203
Ns(I2
I3
tp204
Ns(I1
I9
tp205
Ns(I8
I7
tp206
Ns(I4
I2
tp207
Ns(I9
I6
tp208
Ns(I6
I5
tp209
Ns(I5
I3
tp210
Ns(I11
I7
tp211
Ns(I10
I5
tp212
Ns(I7
I0
tp213
Ns(I6
I8
tp214
Ns(I12
I0
tp215
Ns(I11
I8
tp216
Ns(I17
I0
tp217
(g10
g11
(I23
I30
I248
I255
tp218
Rp219
tp220
s(I16
I8
tp221
Ns(I14
I7
tp222
Ns(I13
I5
tp223
Ns(I19
I5
tp224
Ns(I18
I7
tp225
Ns(I0
I6
tp226
Ns(I15
I6
tp227
Ns(I20
I6
tp228
(g10
g11
(I235
I25
I22
I255
tp229
Rp230
tp231
s(I1
I7
tp232
Ns(I0
I9
tp233
Ns(I21
I7
tp234
(g10
g11
(I212
I115
I13
I255
tp235
Rp236
tp237
s(I3
I4
tp238
Ns(I2
I4
tp239
Ns(I8
I4
tp240
Ns(I5
I9
tp241
Ns(I4
I7
tp242
Ns(I9
I1
tp243
Ns(I6
I6
tp244
Ns(I5
I6
tp245
Ns(I11
I2
tp246
Ns(I10
I6
tp247
Ns(I7
I7
tp248
Ns(I12
I5
tp249
Ns(I17
I3
tp250
Ns(I15
I8
tp251
Ns(I14
I0
tp252
Ns(I13
I8
tp253
Ns(I20
I8
tp254
Ns(I19
I0
tp255
(g10
g11
(I23
I30
I248
I255
tp256
Rp257
tp258
s(I18
I8
tp259
Ns(I0
I3
tp260
Ns(I15
I5
tp261
Ns(I1
I2
tp262
Ns(I16
I1
tp263
Ns(I4
I9
tp264
Ns(I3
I3
tp265
Ns(I2
I9
tp266
Ns(I8
I1
tp267
Ns(I4
I4
tp268
Ns(I6
I3
tp269
Ns(I11
I1
tp270
Ns(I16
I7
tp271
Ns(I0
I0
tp272
Ns(I21
I0
tp273
(g10
g11
(I8
I255
I215
I255
tp274
Rp275
tp276
s(I10
I1
tp277
Ns(I17
I4
tp278
Ns(I7
I9
tp279
Ns(I13
I1
tp280
Ns(I19
I9
tp281
(g10
g11
(I25
I33
I224
I255
tp282
Rp283
tp284
s(I18
I3
tp285
Ns(I17
I9
tp286
(g10
g11
(I25
I33
I224
I255
tp287
Rp288
tp289
s(I15
I2
tp290
Ns(I20
I2
tp291
Ns(I21
I3
tp292
(g10
g11
(I231
I20
I25
I255
tp293
Rp294
tp295
s(I3
I8
tp296
Ns(I2
I0
tp297
Ns(I1
I8
tp298
Ns(I8
I8
tp299
Ns(I4
I3
tp300
Ns(I9
I5
tp301
Ns(I5
I2
tp302
Ns(I11
I6
tp303
Ns(I10
I2
tp304
NssS'time'
p305
F1390395125.582
s.(dp0
S'trigger'
p1
S'7'
p2
sS'matrix'
p3
(dp4
(I7
I3
tp5
Ns(I6
I9
tp6
Ns(I12
I1
tp7
Ns(I16
I6
tp8
Ns(I16
I9
tp9
(S'block'
p10
cpygame
__color_constructor
p11
(I25
I33
I224
I255
tp12
Rp13
tp14
s(I14
I4
tp15
Ns(I13
I4
tp16
Ns(I19
I4
tp17
Ns(I18
I4
tp18
Ns(I0
I7
tp19
Ns(I15
I1
tp20
Ns(I21
I9
tp21
(g10
g11
(I9
I225
I210
I255
tp22
Rp23
tp24
s(I20
I7
tp25
(g10
g11
(I235
I25
I22
I255
tp26
Rp27
tp28
s(I1
I6
tp29
Ns(I21
I6
tp30
(g10
g11
(I235
I25
I22
I255
tp31
Rp32
tp33
s(I3
I7
tp34
Ns(I2
I5
tp35
Ns(I8
I5
tp36
Ns(I5
I8
tp37
Ns(I4
I0
tp38
Ns(I10
I8
tp39
Ns(I9
I0
tp40
Ns(I6
I7
tp41
Ns(I5
I5
tp42
Ns(I11
I5
tp43
Ns(I10
I7
tp44
Ns(I16
I3
tp45
Ns(I17
I7
tp46
(g10
g11
(I229
I22
I20
I255
tp47
Rp48
tp49
s(I12
I6
tp50
Ns(I8
I8
tp51
Ns(I17
I2
tp52
Ns(I14
I1
tp53
Ns(I13
I7
tp54
Ns(I20
I9
tp55
(g10
g11
(I9
I225
I210
I255
tp56
Rp57
tp58
s(I19
I3
tp59
Ns(I18
I9
tp60
(g10
g11
(I25
I33
I224
I255
tp61
Rp62
tp63
s(I0
I4
tp64
Ns(I15
I4
tp65
Ns(I20
I4
tp66
(g10
g11
(I184
I238
I36
I255
tp67
Rp68
tp69
s(I1
I1
tp70
Ns(I3
I2
tp71
Ns(I2
I6
tp72
Ns(I8
I2
tp73
Ns(I4
I5
tp74
Ns(I9
I3
tp75
Ns(I6
I0
tp76
Ns(I11
I0
tp77
Ns(I7
I5
tp78
Ns(I7
I0
tp79
Ns(I14
I2
tp80
Ns(I0
I1
tp81
Ns(I3
I1
tp82
Ns(I9
I9
tp83
Ns(I7
I8
tp84
Ns(I14
I8
tp85
Ns(I13
I0
tp86
Ns(I12
I8
tp87
Ns(I19
I8
tp88
Ns(I18
I0
tp89
(g10
g11
(I23
I30
I248
I255
tp90
Rp91
tp92
s(I17
I8
tp93
Ns(I20
I3
tp94
Ns(I21
I2
tp95
(g10
g11
(I231
I20
I25
I255
tp96
Rp97
tp98
s(I2
I1
tp99
Ns(I8
I9
tp100
Ns(I9
I4
tp101
Ns(I5
I1
tp102
Ns(I10
I3
tp103
Ns(I7
I2
tp104
Ns(I12
I2
tp105
Ns(I17
I6
tp106
Ns(I14
I5
tp107
Ns(I13
I3
tp108
Ns(I19
I7
tp109
(g10
g11
(I235
I25
I22
I255
tp110
Rp111
tp112
s(I18
I5
tp113
Ns(I7
I1
tp114
Ns(I15
I0
tp115
Ns(I21
I8
tp116
Ns(I20
I0
tp117
(g10
g11
(I23
I30
I248
I255
tp118
Rp119
tp120
s(I1
I5
tp121
Ns(I21
I5
tp122
(g10
g11
(I184
I238
I36
I255
tp123
Rp124
tp125
s(I3
I6
tp126
Ns(I2
I2
tp127
Ns(I8
I6
tp128
Ns(I4
I1
tp129
Ns(I10
I9
tp130
Ns(I9
I7
tp131
Ns(I6
I4
tp132
Ns(I5
I4
tp133
Ns(I11
I4
tp134
Ns(I10
I4
tp135
Ns(I16
I4
tp136
Ns(I12
I7
tp137
Ns(I11
I9
tp138
Ns(I17
I1
tp139
Ns(I14
I6
tp140
Ns(I13
I6
tp141
Ns(I19
I2
tp142
Ns(I18
I6
tp143
(g10
g11
(I229
I22
I20
I255
tp144
Rp145
tp146
s(I0
I5
tp147
Ns(I15
I7
tp148
Ns(I20
I5
tp149
(g10
g11
(I184
I238
I36
I255
tp150
Rp151
tp152
s(I1
I0
tp153
Ns(I0
I8
tp154
Ns(I3
I5
tp155
Ns(I2
I7
tp156
Ns(I8
I3
tp157
Ns(I4
I6
tp158
Ns(I9
I2
tp159
Ns(I6
I1
tp160
Ns(I5
I7
tp161
Ns(I11
I3
tp162
Ns(I7
I4
tp163
Ns(I12
I4
tp164
Ns(I15
I9
tp165
Ns(I14
I3
tp166
Ns(I13
I9
tp167
Ns(I19
I1
tp168
(g10
g11
(I23
I39
I242
I255
tp169
Rp170
tp171
s(I0
I2
tp172
Ns(I1
I3
tp173
Ns(I4
I8
tp174
Ns(I3
I0
tp175
Ns(I2
I8
tp176
Ns(I9
I8
tp177
Ns(I8
I0
tp178
Ns(I6
I2
tp179
Ns(I14
I9
tp180
Ns(I12
I9
tp181
Ns(I18
I1
tp182
(g10
g11
(I23
I39
I242
I255
tp183
Rp184
tp185
s(I21
I1
tp186
(g10
g11
(I23
I39
I242
I255
tp187
Rp188
tp189
s(I5
I0
tp190
Ns(I10
I0
tp191
Ns(I12
I3
tp192
Ns(I17
I5
tp193
Ns(I7
I6
tp194
Ns(I13
I2
tp195
Ns(I19
I6
tp196
(g10
g11
(I229
I22
I20
I255
tp197
Rp198
tp199
s(I18
I2
tp200
Ns(I15
I3
tp201
Ns(I20
I1
tp202
(g10
g11
(I23
I39
I242
I255
tp203
Rp204
tp205
s(I1
I4
tp206
Ns(I7
I7
tp207
Ns(I21
I4
tp208
(g10
g11
(I184
I238
I36
I255
tp209
Rp210
tp211
s(I3
I9
tp212
Ns(I2
I3
tp213
Ns(I1
I9
tp214
Ns(I8
I7
tp215
Ns(I4
I2
tp216
Ns(I9
I6
tp217
Ns(I6
I5
tp218
Ns(I5
I3
tp219
Ns(I11
I7
tp220
Ns(I10
I5
tp221
Ns(I16
I5
tp222
Ns(I6
I8
tp223
Ns(I12
I0
tp224
Ns(I11
I8
tp225
Ns(I17
I0
tp226
(g10
g11
(I23
I30
I248
I255
tp227
Rp228
tp229
s(I16
I8
tp230
Ns(I14
I7
tp231
Ns(I13
I5
tp232
Ns(I19
I5
tp233
Ns(I18
I7
tp234
(g10
g11
(I229
I22
I20
I255
tp235
Rp236
tp237
s(I0
I6
tp238
Ns(I15
I6
tp239
Ns(I20
I6
tp240
(g10
g11
(I235
I25
I22
I255
tp241
Rp242
tp243
s(I1
I7
tp244
Ns(I0
I9
tp245
Ns(I21
I7
tp246
(g10
g11
(I212
I115
I13
I255
tp247
Rp248
tp249
s(I3
I4
tp250
Ns(I2
I4
tp251
Ns(I8
I4
tp252
Ns(I5
I9
tp253
Ns(I4
I7
tp254
Ns(I9
I1
tp255
Ns(I6
I6
tp256
Ns(I5
I6
tp257
Ns(I11
I2
tp258
Ns(I10
I6
tp259
Ns(I16
I2
tp260
Ns(I12
I5
tp261
Ns(I17
I3
tp262
Ns(I15
I8
tp263
Ns(I14
I0
tp264
Ns(I13
I8
tp265
Ns(I20
I8
tp266
Ns(I19
I0
tp267
(g10
g11
(I23
I30
I248
I255
tp268
Rp269
tp270
s(I18
I8
tp271
Ns(I0
I3
tp272
Ns(I15
I5
tp273
Ns(I1
I2
tp274
Ns(I16
I1
tp275
Ns(I4
I9
tp276
Ns(I3
I3
tp277
Ns(I2
I9
tp278
Ns(I8
I1
tp279
Ns(I4
I4
tp280
Ns(I6
I3
tp281
Ns(I11
I1
tp282
Ns(I16
I7
tp283
Ns(I0
I0
tp284
Ns(I21
I0
tp285
(g10
g11
(I8
I255
I215
I255
tp286
Rp287
tp288
s(I10
I1
tp289
Ns(I17
I4
tp290
Ns(I7
I9
tp291
Ns(I13
I1
tp292
Ns(I19
I9
tp293
(g10
g11
(I25
I33
I224
I255
tp294
Rp295
tp296
s(I18
I3
tp297
Ns(I17
I9
tp298
(g10
g11
(I25
I33
I224
I255
tp299
Rp300
tp301
s(I15
I2
tp302
Ns(I20
I2
tp303
Ns(I21
I3
tp304
(g10
g11
(I231
I20
I25
I255
tp305
Rp306
tp307
s(I3
I8
tp308
Ns(I2
I0
tp309
Ns(I1
I8
tp310
Ns(I16
I0
tp311
Ns(I4
I3
tp312
Ns(I9
I5
tp313
Ns(I5
I2
tp314
Ns(I11
I6
tp315
Ns(I10
I2
tp316
NssS'time'
p317
F1390395129.188
s.(dp0
S'trigger'
p1
S'7'
p2
sS'matrix'
p3
(dp4
(I7
I3
tp5
Ns(I6
I9
tp6
Ns(I12
I1
tp7
Ns(I16
I6
tp8
Ns(I16
I9
tp9
(S'block'
p10
cpygame
__color_constructor
p11
(I25
I33
I224
I255
tp12
Rp13
tp14
s(I14
I4
tp15
Ns(I13
I4
tp16
Ns(I19
I4
tp17
Ns(I18
I4
tp18
Ns(I0
I7
tp19
Ns(I15
I1
tp20
Ns(I21
I9
tp21
(g10
g11
(I9
I225
I210
I255
tp22
Rp23
tp24
s(I20
I7
tp25
(g10
g11
(I235
I25
I22
I255
tp26
Rp27
tp28
s(I1
I6
tp29
Ns(I21
I6
tp30
(g10
g11
(I235
I25
I22
I255
tp31
Rp32
tp33
s(I3
I7
tp34
Ns(I2
I5
tp35
Ns(I8
I5
tp36
Ns(I5
I8
tp37
Ns(I4
I0
tp38
Ns(I10
I8
tp39
Ns(I9
I0
tp40
Ns(I6
I7
tp41
Ns(I5
I5
tp42
Ns(I11
I5
tp43
Ns(I10
I7
tp44
Ns(I16
I3
tp45
Ns(I17
I7
tp46
(g10
g11
(I229
I22
I20
I255
tp47
Rp48
tp49
s(I12
I6
tp50
Ns(I17
I2
tp51
Ns(I14
I1
tp52
Ns(I13
I7
tp53
Ns(I20
I9
tp54
(g10
g11
(I9
I225
I210
I255
tp55
Rp56
tp57
s(I19
I3
tp58
Ns(I18
I9
tp59
(g10
g11
(I25
I33
I224
I255
tp60
Rp61
tp62
s(I0
I4
tp63
Ns(I15
I4
tp64
Ns(I20
I4
tp65
(g10
g11
(I184
I238
I36
I255
tp66
Rp67
tp68
s(I1
I1
tp69
Ns(I3
I2
tp70
Ns(I2
I6
tp71
Ns(I8
I2
tp72
Ns(I4
I5
tp73
Ns(I9
I3
tp74
Ns(I6
I0
tp75
Ns(I11
I0
tp76
Ns(I7
I5
tp77
Ns(I16
I5
tp78
Ns(I14
I2
tp79
Ns(I0
I1
tp80
Ns(I3
I1
tp81
Ns(I9
I9
tp82
Ns(I7
I8
tp83
Ns(I14
I8
tp84
Ns(I13
I0
tp85
Ns(I12
I8
tp86
Ns(I19
I8
tp87
(g10
g11
(I29
I33
I216
I255
tp88
Rp89
tp90
s(I18
I0
tp91
(g10
g11
(I23
I30
I248
I255
tp92
Rp93
tp94
s(I17
I8
tp95
Ns(I20
I3
tp96
Ns(I21
I2
tp97
(g10
g11
(I231
I20
I25
I255
tp98
Rp99
tp100
s(I2
I1
tp101
Ns(I8
I9
tp102
Ns(I9
I4
tp103
Ns(I5
I1
tp104
Ns(I10
I3
tp105
Ns(I7
I2
tp106
Ns(I12
I2
tp107
Ns(I17
I6
tp108
Ns(I14
I5
tp109
Ns(I13
I3
tp110
Ns(I19
I7
tp111
(g10
g11
(I235
I25
I22
I255
tp112
Rp113
tp114
s(I18
I5
tp115
Ns(I16
I4
tp116
Ns(I15
I0
tp117
Ns(I21
I8
tp118
(g10
g11
(I29
I33
I216
I255
tp119
Rp120
tp121
s(I20
I0
tp122
(g10
g11
(I23
I30
I248
I255
tp123
Rp124
tp125
s(I1
I5
tp126
Ns(I21
I5
tp127
(g10
g11
(I184
I238
I36
I255
tp128
Rp129
tp130
s(I3
I6
tp131
Ns(I2
I2
tp132
Ns(I8
I6
tp133
Ns(I4
I1
tp134
Ns(I10
I9
tp135
Ns(I9
I7
tp136
Ns(I6
I4
tp137
Ns(I5
I4
tp138
Ns(I11
I4
tp139
Ns(I10
I4
tp140
Ns(I7
I1
tp141
Ns(I12
I7
tp142
Ns(I11
I9
tp143
Ns(I17
I1
tp144
Ns(I14
I6
tp145
Ns(I13
I6
tp146
Ns(I19
I2
tp147
Ns(I18
I6
tp148
(g10
g11
(I229
I22
I20
I255
tp149
Rp150
tp151
s(I0
I5
tp152
Ns(I15
I7
tp153
Ns(I20
I5
tp154
(g10
g11
(I184
I238
I36
I255
tp155
Rp156
tp157
s(I1
I0
tp158
Ns(I0
I8
tp159
Ns(I3
I5
tp160
Ns(I2
I7
tp161
Ns(I8
I3
tp162
Ns(I4
I6
tp163
Ns(I9
I2
tp164
Ns(I6
I1
tp165
Ns(I5
I7
tp166
Ns(I11
I3
tp167
Ns(I7
I4
tp168
Ns(I12
I4
tp169
Ns(I15
I9
tp170
Ns(I14
I3
tp171
Ns(I13
I9
tp172
Ns(I19
I1
tp173
(g10
g11
(I23
I39
I242
I255
tp174
Rp175
tp176
s(I0
I2
tp177
Ns(I1
I3
tp178
Ns(I4
I8
tp179
Ns(I3
I0
tp180
Ns(I2
I8
tp181
Ns(I9
I8
tp182
Ns(I8
I0
tp183
Ns(I6
I2
tp184
Ns(I14
I9
tp185
Ns(I12
I9
tp186
Ns(I18
I1
tp187
(g10
g11
(I23
I39
I242
I255
tp188
Rp189
tp190
s(I16
I0
tp191
Ns(I21
I1
tp192
(g10
g11
(I23
I39
I242
I255
tp193
Rp194
tp195
s(I5
I0
tp196
Ns(I10
I0
tp197
Ns(I12
I3
tp198
Ns(I17
I5
tp199
Ns(I7
I6
tp200
Ns(I13
I2
tp201
Ns(I19
I6
tp202
(g10
g11
(I229
I22
I20
I255
tp203
Rp204
tp205
s(I18
I2
tp206
Ns(I15
I3
tp207
Ns(I20
I1
tp208
(g10
g11
(I23
I39
I242
I255
tp209
Rp210
tp211
s(I1
I4
tp212
Ns(I16
I2
tp213
Ns(I21
I4
tp214
(g10
g11
(I184
I238
I36
I255
tp215
Rp216
tp217
s(I3
I9
tp218
Ns(I2
I3
tp219
Ns(I1
I9
tp220
Ns(I8
I7
tp221
Ns(I4
I2
tp222
Ns(I9
I6
tp223
Ns(I6
I5
tp224
Ns(I5
I3
tp225
Ns(I11
I7
tp226
Ns(I10
I5
tp227
Ns(I7
I0
tp228
Ns(I6
I8
tp229
Ns(I12
I0
tp230
Ns(I11
I8
tp231
Ns(I17
I0
tp232
(g10
g11
(I23
I30
I248
I255
tp233
Rp234
tp235
s(I16
I8
tp236
Ns(I14
I7
tp237
Ns(I13
I5
tp238
Ns(I19
I5
tp239
Ns(I18
I7
tp240
(g10
g11
(I229
I22
I20
I255
tp241
Rp242
tp243
s(I0
I6
tp244
Ns(I15
I6
tp245
Ns(I20
I6
tp246
(g10
g11
(I235
I25
I22
I255
tp247
Rp248
tp249
s(I1
I7
tp250
Ns(I0
I9
tp251
Ns(I21
I7
tp252
(g10
g11
(I212
I115
I13
I255
tp253
Rp254
tp255
s(I3
I4
tp256
Ns(I2
I4
tp257
Ns(I8
I4
tp258
Ns(I5
I9
tp259
Ns(I4
I7
tp260
Ns(I9
I1
tp261
Ns(I6
I6
tp262
Ns(I5
I6
tp263
Ns(I11
I2
tp264
Ns(I10
I6
tp265
Ns(I7
I7
tp266
Ns(I12
I5
tp267
Ns(I17
I3
tp268
Ns(I15
I8
tp269
Ns(I14
I0
tp270
Ns(I13
I8
tp271
Ns(I20
I8
tp272
(g10
g11
(I29
I33
I216
I255
tp273
Rp274
tp275
s(I19
I0
tp276
(g10
g11
(I23
I30
I248
I255
tp277
Rp278
tp279
s(I18
I8
tp280
(g10
g11
(I29
I33
I216
I255
tp281
Rp282
tp283
s(I0
I3
tp284
Ns(I15
I5
tp285
Ns(I1
I2
tp286
Ns(I16
I1
tp287
Ns(I4
I9
tp288
Ns(I3
I3
tp289
Ns(I2
I9
tp290
Ns(I8
I1
tp291
Ns(I4
I4
tp292
Ns(I6
I3
tp293
Ns(I11
I1
tp294
Ns(I16
I7
tp295
Ns(I0
I0
tp296
Ns(I21
I0
tp297
(g10
g11
(I8
I255
I215
I255
tp298
Rp299
tp300
s(I10
I1
tp301
Ns(I17
I4
tp302
Ns(I7
I9
tp303
Ns(I13
I1
tp304
Ns(I19
I9
tp305
(g10
g11
(I25
I33
I224
I255
tp306
Rp307
tp308
s(I18
I3
tp309
Ns(I17
I9
tp310
(g10
g11
(I25
I33
I224
I255
tp311
Rp312
tp313
s(I15
I2
tp314
Ns(I20
I2
tp315
Ns(I21
I3
tp316
(g10
g11
(I231
I20
I25
I255
tp317
Rp318
tp319
s(I3
I8
tp320
Ns(I2
I0
tp321
Ns(I1
I8
tp322
Ns(I8
I8
tp323
Ns(I4
I3
tp324
Ns(I9
I5
tp325
Ns(I5
I2
tp326
Ns(I11
I6
tp327
Ns(I10
I2
tp328
NssS'time'
p329
F1390395132.979
s.(dp0
S'trigger'
p1
S'0'
p2
sS'matrix'
p3
(dp4
(I7
I3
tp5
Ns(I6
I9
tp6
Ns(I12
I1
tp7
Ns(I16
I6
tp8
Ns(I16
I9
tp9
Ns(I14
I4
tp10
Ns(I13
I4
tp11
Ns(I19
I4
tp12
Ns(I18
I4
tp13
Ns(I0
I7
tp14
Ns(I15
I1
tp15
Ns(I21
I9
tp16
(S'block'
p17
cpygame
__color_constructor
p18
(I9
I225
I210
I255
tp19
Rp20
tp21
s(I20
I7
tp22
(g17
g18
(I235
I25
I22
I255
tp23
Rp24
tp25
s(I1
I6
tp26
Ns(I21
I6
tp27
(g17
g18
(I235
I25
I22
I255
tp28
Rp29
tp30
s(I3
I7
tp31
Ns(I2
I5
tp32
Ns(I8
I5
tp33
Ns(I5
I8
tp34
Ns(I4
I0
tp35
Ns(I10
I8
tp36
Ns(I9
I0
tp37
Ns(I6
I7
tp38
Ns(I5
I5
tp39
Ns(I11
I5
tp40
Ns(I10
I7
tp41
Ns(I16
I3
tp42
Ns(I17
I7
tp43
Ns(I12
I6
tp44
Ns(I17
I2
tp45
Ns(I14
I1
tp46
Ns(I13
I7
tp47
Ns(I20
I9
tp48
(g17
g18
(I25
I33
I224
I255
tp49
Rp50
tp51
s(I19
I3
tp52
Ns(I18
I9
tp53
(g17
g18
(I25
I33
I224
I255
tp54
Rp55
tp56
s(I0
I4
tp57
Ns(I15
I4
tp58
Ns(I20
I4
tp59
Ns(I1
I1
tp60
Ns(I3
I2
tp61
Ns(I2
I6
tp62
Ns(I8
I2
tp63
Ns(I4
I5
tp64
Ns(I9
I3
tp65
Ns(I6
I0
tp66
Ns(I11
I0
tp67
Ns(I7
I5
tp68
Ns(I16
I5
tp69
Ns(I14
I2
tp70
Ns(I0
I1
tp71
Ns(I3
I1
tp72
Ns(I9
I9
tp73
Ns(I7
I8
tp74
Ns(I14
I8
tp75
Ns(I13
I0
tp76
Ns(I12
I8
tp77
Ns(I19
I8
tp78
(g17
g18
(I29
I33
I216
I255
tp79
Rp80
tp81
s(I18
I0
tp82
(g17
g18
(I23
I30
I248
I255
tp83
Rp84
tp85
s(I17
I8
tp86
Ns(I20
I3
tp87
Ns(I21
I2
tp88
Ns(I2
I1
tp89
Ns(I8
I9
tp90
Ns(I9
I4
tp91
Ns(I5
I1
tp92
Ns(I10
I3
tp93
Ns(I7
I2
tp94
Ns(I12
I2
tp95
Ns(I17
I6
tp96
Ns(I14
I5
tp97
Ns(I13
I3
tp98
Ns(I19
I7
tp99
(g17
g18
(I229
I22
I20
I255
tp100
Rp101
tp102
s(I18
I5
tp103
Ns(I16
I4
tp104
Ns(I15
I0
tp105
Ns(I21
I8
tp106
(g17
g18
(I29
I33
I216
I255
tp107
Rp108
tp109
s(I20
I0
tp110
(g17
g18
(I23
I30
I248
I255
tp111
Rp112
tp113
s(I1
I5
tp114
Ns(I21
I5
tp115
(g17
g18
(I184
I238
I36
I255
tp116
Rp117
tp118
s(I3
I6
tp119
Ns(I2
I2
tp120
Ns(I8
I6
tp121
Ns(I4
I1
tp122
Ns(I10
I9
tp123
Ns(I9
I7
tp124
Ns(I6
I4
tp125
Ns(I5
I4
tp126
Ns(I11
I4
tp127
Ns(I10
I4
tp128
Ns(I7
I1
tp129
Ns(I12
I7
tp130
Ns(I11
I9
tp131
Ns(I17
I1
tp132
Ns(I14
I6
tp133
Ns(I13
I6
tp134
Ns(I19
I2
tp135
Ns(I18
I6
tp136
Ns(I0
I5
tp137
Ns(I15
I7
tp138
Ns(I20
I5
tp139
Ns(I1
I0
tp140
Ns(I0
I8
tp141
Ns(I3
I5
tp142
Ns(I2
I7
tp143
Ns(I8
I3
tp144
Ns(I4
I6
tp145
Ns(I9
I2
tp146
Ns(I6
I1
tp147
Ns(I5
I7
tp148
Ns(I11
I3
tp149
Ns(I7
I4
tp150
Ns(I12
I4
tp151
Ns(I15
I9
tp152
Ns(I14
I3
tp153
Ns(I13
I9
tp154
Ns(I19
I1
tp155
(g17
g18
(I23
I39
I242
I255
tp156
Rp157
tp158
s(I0
I2
tp159
Ns(I1
I3
tp160
Ns(I4
I8
tp161
Ns(I3
I0
tp162
Ns(I2
I8
tp163
Ns(I9
I8
tp164
Ns(I8
I0
tp165
Ns(I6
I2
tp166
Ns(I14
I9
tp167
Ns(I12
I9
tp168
Ns(I18
I1
tp169
Ns(I16
I0
tp170
Ns(I21
I1
tp171
(g17
g18
(I23
I39
I242
I255
tp172
Rp173
tp174
s(I5
I0
tp175
Ns(I10
I0
tp176
Ns(I12
I3
tp177
Ns(I17
I5
tp178
Ns(I7
I6
tp179
Ns(I13
I2
tp180
Ns(I19
I6
tp181
(g17
g18
(I229
I22
I20
I255
tp182
Rp183
tp184
s(I18
I2
tp185
Ns(I15
I3
tp186
Ns(I20
I1
tp187
(g17
g18
(I23
I39
I242
I255
tp188
Rp189
tp190
s(I1
I4
tp191
Ns(I16
I2
tp192
Ns(I21
I4
tp193
(g17
g18
(I184
I238
I36
I255
tp194
Rp195
tp196
s(I3
I9
tp197
Ns(I2
I3
tp198
Ns(I1
I9
tp199
Ns(I8
I7
tp200
Ns(I4
I2
tp201
Ns(I9
I6
tp202
Ns(I6
I5
tp203
Ns(I5
I3
tp204
Ns(I11
I7
tp205
Ns(I10
I5
tp206
Ns(I7
I0
tp207
Ns(I6
I8
tp208
Ns(I12
I0
tp209
Ns(I11
I8
tp210
Ns(I17
I0
tp211
Ns(I16
I8
tp212
Ns(I14
I7
tp213
Ns(I13
I5
tp214
Ns(I19
I5
tp215
Ns(I18
I7
tp216
(g17
g18
(I229
I22
I20
I255
tp217
Rp218
tp219
s(I0
I6
tp220
Ns(I15
I6
tp221
Ns(I20
I6
tp222
(g17
g18
(I229
I22
I20
I255
tp223
Rp224
tp225
s(I1
I7
tp226
Ns(I0
I9
tp227
Ns(I21
I7
tp228
(g17
g18
(I235
I25
I22
I255
tp229
Rp230
tp231
s(I3
I4
tp232
Ns(I2
I4
tp233
Ns(I8
I4
tp234
Ns(I5
I9
tp235
Ns(I4
I7
tp236
Ns(I9
I1
tp237
Ns(I6
I6
tp238
Ns(I5
I6
tp239
Ns(I11
I2
tp240
Ns(I10
I6
tp241
Ns(I7
I7
tp242
Ns(I12
I5
tp243
Ns(I17
I3
tp244
Ns(I15
I8
tp245
Ns(I14
I0
tp246
Ns(I13
I8
tp247
Ns(I20
I8
tp248
(g17
g18
(I29
I33
I216
I255
tp249
Rp250
tp251
s(I19
I0
tp252
(g17
g18
(I23
I30
I248
I255
tp253
Rp254
tp255
s(I18
I8
tp256
Ns(I0
I3
tp257
Ns(I15
I5
tp258
Ns(I1
I2
tp259
Ns(I16
I1
tp260
Ns(I4
I9
tp261
Ns(I3
I3
tp262
Ns(I2
I9
tp263
Ns(I8
I1
tp264
Ns(I4
I4
tp265
Ns(I6
I3
tp266
Ns(I11
I1
tp267
Ns(I16
I7
tp268
Ns(I0
I0
tp269
Ns(I21
I0
tp270
(g17
g18
(I23
I30
I248
I255
tp271
Rp272
tp273
s(I10
I1
tp274
Ns(I17
I4
tp275
Ns(I7
I9
tp276
Ns(I13
I1
tp277
Ns(I19
I9
tp278
(g17
g18
(I25
I33
I224
I255
tp279
Rp280
tp281
s(I18
I3
tp282
Ns(I17
I9
tp283
(g17
g18
(I25
I33
I224
I255
tp284
Rp285
tp286
s(I15
I2
tp287
Ns(I20
I2
tp288
Ns(I21
I3
tp289
Ns(I3
I8
tp290
Ns(I2
I0
tp291
Ns(I1
I8
tp292
Ns(I8
I8
tp293
Ns(I4
I3
tp294
Ns(I9
I5
tp295
Ns(I5
I2
tp296
Ns(I11
I6
tp297
Ns(I10
I2
tp298
NssS'time'
p299
F1390395133.011
s.(dp0
S'trigger'
p1
S'7'
p2
sS'matrix'
p3
(dp4
(I7
I3
tp5
Ns(I6
I9
tp6
Ns(I12
I1
tp7
Ns(I16
I6
tp8
Ns(I16
I9
tp9
Ns(I14
I4
tp10
Ns(I13
I4
tp11
Ns(I19
I4
tp12
Ns(I18
I4
tp13
Ns(I0
I7
tp14
Ns(I15
I1
tp15
Ns(I21
I9
tp16
(S'block'
p17
cpygame
__color_constructor
p18
(I9
I225
I210
I255
tp19
Rp20
tp21
s(I20
I7
tp22
(g17
g18
(I235
I25
I22
I255
tp23
Rp24
tp25
s(I1
I6
tp26
Ns(I21
I6
tp27
(g17
g18
(I235
I25
I22
I255
tp28
Rp29
tp30
s(I3
I7
tp31
Ns(I2
I5
tp32
Ns(I8
I5
tp33
Ns(I5
I8
tp34
Ns(I4
I0
tp35
Ns(I10
I8
tp36
Ns(I9
I0
tp37
Ns(I6
I7
tp38
Ns(I5
I5
tp39
Ns(I11
I5
tp40
Ns(I10
I7
tp41
Ns(I16
I3
tp42
Ns(I17
I7
tp43
(g17
g18
(I20
I158
I70
I255
tp44
Rp45
tp46
s(I12
I6
tp47
Ns(I8
I8
tp48
Ns(I17
I2
tp49
Ns(I14
I1
tp50
Ns(I13
I7
tp51
Ns(I20
I9
tp52
(g17
g18
(I25
I33
I224
I255
tp53
Rp54
tp55
s(I19
I3
tp56
Ns(I18
I9
tp57
(g17
g18
(I25
I33
I224
I255
tp58
Rp59
tp60
s(I0
I4
tp61
Ns(I15
I4
tp62
Ns(I20
I4
tp63
Ns(I1
I1
tp64
Ns(I3
I2
tp65
Ns(I2
I6
tp66
Ns(I8
I2
tp67
Ns(I4
I5
tp68
Ns(I9
I3
tp69
Ns(I6
I0
tp70
Ns(I11
I0
tp71
Ns(I7
I5
tp72
Ns(I7
I0
tp73
Ns(I14
I2
tp74
Ns(I0
I1
tp75
Ns(I3
I1
tp76
Ns(I9
I9
tp77
Ns(I7
I8
tp78
Ns(I14
I8
tp79
Ns(I13
I0
tp80
Ns(I12
I8
tp81
Ns(I19
I8
tp82
(g17
g18
(I29
I33
I216
I255
tp83
Rp84
tp85
s(I18
I0
tp86
(g17
g18
(I23
I30
I248
I255
tp87
Rp88
tp89
s(I17
I8
tp90
(g17
g18
(I20
I158
I70
I255
tp91
Rp92
tp93
s(I20
I3
tp94
Ns(I21
I2
tp95
Ns(I2
I1
tp96
Ns(I8
I9
tp97
Ns(I9
I4
tp98
Ns(I5
I1
tp99
Ns(I10
I3
tp100
Ns(I7
I2
tp101
Ns(I12
I2
tp102
Ns(I17
I6
tp103
Ns(I14
I5
tp104
Ns(I13
I3
tp105
Ns(I19
I7
tp106
(g17
g18
(I229
I22
I20
I255
tp107
Rp108
tp109
s(I18
I5
tp110
Ns(I7
I1
tp111
Ns(I15
I0
tp112
Ns(I21
I8
tp113
(g17
g18
(I29
I33
I216
I255
tp114
Rp115
tp116
s(I20
I0
tp117
(g17
g18
(I23
I30
I248
I255
tp118
Rp119
tp120
s(I1
I5
tp121
Ns(I21
I5
tp122
(g17
g18
(I184
I238
I36
I255
tp123
Rp124
tp125
s(I3
I6
tp126
Ns(I2
I2
tp127
Ns(I8
I6
tp128
Ns(I4
I1
tp129
Ns(I10
I9
tp130
Ns(I9
I7
tp131
Ns(I6
I4
tp132
Ns(I5
I4
tp133
Ns(I11
I4
tp134
Ns(I10
I4
tp135
Ns(I16
I4
tp136
Ns(I12
I7
tp137
Ns(I11
I9
tp138
Ns(I17
I1
tp139
Ns(I14
I6
tp140
Ns(I13
I6
tp141
Ns(I19
I2
tp142
Ns(I18
I6
tp143
Ns(I0
I5
tp144
Ns(I15
I7
tp145
Ns(I20
I5
tp146
Ns(I1
I0
tp147
Ns(I0
I8
tp148
Ns(I3
I5
tp149
Ns(I2
I7
tp150
Ns(I8
I3
tp151
Ns(I4
I6
tp152
Ns(I9
I2
tp153
Ns(I6
I1
tp154
Ns(I5
I7
tp155
Ns(I11
I3
tp156
Ns(I7
I4
tp157
Ns(I12
I4
tp158
Ns(I15
I9
tp159
Ns(I14
I3
tp160
Ns(I13
I9
tp161
Ns(I19
I1
tp162
(g17
g18
(I23
I39
I242
I255
tp163
Rp164
tp165
s(I0
I2
tp166
Ns(I1
I3
tp167
Ns(I4
I8
tp168
Ns(I3
I0
tp169
Ns(I2
I8
tp170
Ns(I9
I8
tp171
Ns(I8
I0
tp172
Ns(I6
I2
tp173
Ns(I14
I9
tp174
Ns(I12
I9
tp175
Ns(I18
I1
tp176
Ns(I21
I1
tp177
(g17
g18
(I23
I39
I242
I255
tp178
Rp179
tp180
s(I5
I0
tp181
Ns(I10
I0
tp182
Ns(I12
I3
tp183
Ns(I17
I5
tp184
Ns(I7
I6
tp185
Ns(I13
I2
tp186
Ns(I19
I6
tp187
(g17
g18
(I229
I22
I20
I255
tp188
Rp189
tp190
s(I18
I2
tp191
Ns(I15
I3
tp192
Ns(I20
I1
tp193
(g17
g18
(I23
I39
I242
I255
tp194
Rp195
tp196
s(I1
I4
tp197
Ns(I7
I7
tp198
Ns(I21
I4
tp199
(g17
g18
(I184
I238
I36
I255
tp200
Rp201
tp202
s(I3
I9
tp203
Ns(I2
I3
tp204
Ns(I1
I9
tp205
Ns(I8
I7
tp206
Ns(I4
I2
tp207
Ns(I9
I6
tp208
Ns(I6
I5
tp209
Ns(I5
I3
tp210
Ns(I11
I7
tp211
Ns(I10
I5
tp212
Ns(I16
I5
tp213
Ns(I6
I8
tp214
Ns(I12
I0
tp215
Ns(I11
I8
tp216
Ns(I17
I0
tp217
Ns(I16
I8
tp218
Ns(I14
I7
tp219
Ns(I13
I5
tp220
Ns(I19
I5
tp221
Ns(I18
I7
tp222
(g17
g18
(I229
I22
I20
I255
tp223
Rp224
tp225
s(I0
I6
tp226
Ns(I15
I6
tp227
Ns(I20
I6
tp228
(g17
g18
(I229
I22
I20
I255
tp229
Rp230
tp231
s(I1
I7
tp232
Ns(I0
I9
tp233
Ns(I21
I7
tp234
(g17
g18
(I235
I25
I22
I255
tp235
Rp236
tp237
s(I3
I4
tp238
Ns(I2
I4
tp239
Ns(I8
I4
tp240
Ns(I5
I9
tp241
Ns(I4
I7
tp242
Ns(I9
I1
tp243
Ns(I6
I6
tp244
Ns(I5
I6
tp245
Ns(I11
I2
tp246
Ns(I10
I6
tp247
Ns(I16
I2
tp248
Ns(I12
I5
tp249
Ns(I17
I3
tp250
Ns(I15
I8
tp251
Ns(I14
I0
tp252
Ns(I13
I8
tp253
Ns(I20
I8
tp254
(g17
g18
(I29
I33
I216
I255
tp255
Rp256
tp257
s(I19
I0
tp258
(g17
g18
(I23
I30
I248
I255
tp259
Rp260
tp261
s(I18
I8
tp262
(g17
g18
(I20
I158
I70
I255
tp263
Rp264
tp265
s(I0
I3
tp266
Ns(I15
I5
tp267
Ns(I1
I2
tp268
Ns(I16
I1
tp269
Ns(I4
I9
tp270
Ns(I3
I3
tp271
Ns(I2
I9
tp272
Ns(I8
I1
tp273
Ns(I4
I4
tp274
Ns(I6
I3
tp275
Ns(I11
I1
tp276
Ns(I16
I7
tp277
(g17
g18
(I20
I158
I70
I255
tp278
Rp279
tp280
s(I0
I0
tp281
Ns(I21
I0
tp282
(g17
g18
(I23
I30
I248
I255
tp283
Rp284
tp285
s(I10
I1
tp286
Ns(I17
I4
tp287
Ns(I7
I9
tp288
Ns(I13
I1
tp289
Ns(I19
I9
tp290
(g17
g18
(I25
I33
I224
I255
tp291
Rp292
tp293
s(I18
I3
tp294
Ns(I17
I9
tp295
(g17
g18
(I25
I33
I224
I255
tp296
Rp297
tp298
s(I15
I2
tp299
Ns(I20
I2
tp300
Ns(I21
I3
tp301
Ns(I3
I8
tp302
Ns(I2
I0
tp303
Ns(I1
I8
tp304
Ns(I16
I0
tp305
Ns(I4
I3
tp306
Ns(I9
I5
tp307
Ns(I5
I2
tp308
Ns(I11
I6
tp309
Ns(I10
I2
tp310
NssS'time'
p311
F1390395136.39
s.(dp0
S'trigger'
p1
S'7'
p2
sS'matrix'
p3
(dp4
(I7
I3
tp5
Ns(I6
I9
tp6
Ns(I12
I1
tp7
Ns(I16
I6
tp8
Ns(I16
I9
tp9
Ns(I14
I4
tp10
Ns(I13
I4
tp11
Ns(I19
I4
tp12
(S'block'
p13
cpygame
__color_constructor
p14
(I209
I241
I42
I255
tp15
Rp16
tp17
s(I18
I4
tp18
Ns(I0
I7
tp19
Ns(I15
I1
tp20
Ns(I21
I9
tp21
(g13
g14
(I9
I225
I210
I255
tp22
Rp23
tp24
s(I20
I7
tp25
(g13
g14
(I235
I25
I22
I255
tp26
Rp27
tp28
s(I1
I6
tp29
Ns(I21
I6
tp30
(g13
g14
(I235
I25
I22
I255
tp31
Rp32
tp33
s(I3
I7
tp34
Ns(I2
I5
tp35
Ns(I8
I5
tp36
Ns(I5
I8
tp37
Ns(I4
I0
tp38
Ns(I10
I8
tp39
Ns(I9
I0
tp40
Ns(I6
I7
tp41
Ns(I5
I5
tp42
Ns(I11
I5
tp43
Ns(I10
I7
tp44
Ns(I16
I3
tp45
Ns(I17
I7
tp46
(g13
g14
(I20
I158
I70
I255
tp47
Rp48
tp49
s(I12
I6
tp50
Ns(I17
I2
tp51
Ns(I14
I1
tp52
Ns(I13
I7
tp53
Ns(I20
I9
tp54
(g13
g14
(I25
I33
I224
I255
tp55
Rp56
tp57
s(I19
I3
tp58
Ns(I18
I9
tp59
(g13
g14
(I25
I33
I224
I255
tp60
Rp61
tp62
s(I0
I4
tp63
Ns(I15
I4
tp64
Ns(I20
I4
tp65
(g13
g14
(I209
I241
I42
I255
tp66
Rp67
tp68
s(I1
I1
tp69
Ns(I3
I2
tp70
Ns(I2
I6
tp71
Ns(I8
I2
tp72
Ns(I4
I5
tp73
Ns(I9
I3
tp74
Ns(I6
I0
tp75
Ns(I11
I0
tp76
Ns(I7
I5
tp77
Ns(I16
I5
tp78
Ns(I14
I2
tp79
Ns(I0
I1
tp80
Ns(I3
I1
tp81
Ns(I9
I9
tp82
Ns(I7
I8
tp83
Ns(I14
I8
tp84
Ns(I13
I0
tp85
Ns(I12
I8
tp86
Ns(I19
I8
tp87
(g13
g14
(I29
I33
I216
I255
tp88
Rp89
tp90
s(I18
I0
tp91
(g13
g14
(I23
I30
I248
I255
tp92
Rp93
tp94
s(I17
I8
tp95
(g13
g14
(I20
I158
I70
I255
tp96
Rp97
tp98
s(I20
I3
tp99
Ns(I21
I2
tp100
Ns(I2
I1
tp101
Ns(I8
I9
tp102
Ns(I9
I4
tp103
Ns(I5
I1
tp104
Ns(I10
I3
tp105
Ns(I7
I2
tp106
Ns(I12
I2
tp107
Ns(I17
I6
tp108
Ns(I14
I5
tp109
Ns(I13
I3
tp110
Ns(I19
I7
tp111
(g13
g14
(I229
I22
I20
I255
tp112
Rp113
tp114
s(I18
I5
tp115
Ns(I16
I4
tp116
Ns(I15
I0
tp117
Ns(I21
I8
tp118
(g13
g14
(I29
I33
I216
I255
tp119
Rp120
tp121
s(I20
I0
tp122
(g13
g14
(I23
I30
I248
I255
tp123
Rp124
tp125
s(I1
I5
tp126
Ns(I21
I5
tp127
(g13
g14
(I184
I238
I36
I255
tp128
Rp129
tp130
s(I3
I6
tp131
Ns(I2
I2
tp132
Ns(I8
I6
tp133
Ns(I4
I1
tp134
Ns(I10
I9
tp135
Ns(I9
I7
tp136
Ns(I6
I4
tp137
Ns(I5
I4
tp138
Ns(I11
I4
tp139
Ns(I10
I4
tp140
Ns(I7
I1
tp141
Ns(I12
I7
tp142
Ns(I11
I9
tp143
Ns(I17
I1
tp144
Ns(I14
I6
tp145
Ns(I13
I6
tp146
Ns(I19
I2
tp147
Ns(I18
I6
tp148
Ns(I0
I5
tp149
Ns(I15
I7
tp150
Ns(I20
I5
tp151
(g13
g14
(I209
I241
I42
I255
tp152
Rp153
tp154
s(I1
I0
tp155
Ns(I0
I8
tp156
Ns(I3
I5
tp157
Ns(I2
I7
tp158
Ns(I8
I3
tp159
Ns(I4
I6
tp160
Ns(I9
I2
tp161
Ns(I6
I1
tp162
Ns(I5
I7
tp163
Ns(I11
I3
tp164
Ns(I7
I4
tp165
Ns(I12
I4
tp166
Ns(I15
I9
tp167
Ns(I14
I3
tp168
Ns(I13
I9
tp169
Ns(I19
I1
tp170
(g13
g14
(I23
I39
I242
I255
tp171
Rp172
tp173
s(I0
I2
tp174
Ns(I1
I3
tp175
Ns(I4
I8
tp176
Ns(I3
I0
tp177
Ns(I2
I8
tp178
Ns(I9
I8
tp179
Ns(I8
I0
tp180
Ns(I6
I2
tp181
Ns(I14
I9
tp182
Ns(I12
I9
tp183
Ns(I18
I1
tp184
Ns(I16
I0
tp185
Ns(I21
I1
tp186
(g13
g14
(I23
I39
I242
I255
tp187
Rp188
tp189
s(I5
I0
tp190
Ns(I10
I0
tp191
Ns(I12
I3
tp192
Ns(I17
I5
tp193
Ns(I7
I6
tp194
Ns(I13
I2
tp195
Ns(I19
I6
tp196
(g13
g14
(I229
I22
I20
I255
tp197
Rp198
tp199
s(I18
I2
tp200
Ns(I15
I3
tp201
Ns(I20
I1
tp202
(g13
g14
(I23
I39
I242
I255
tp203
Rp204
tp205
s(I1
I4
tp206
Ns(I16
I2
tp207
Ns(I21
I4
tp208
(g13
g14
(I184
I238
I36
I255
tp209
Rp210
tp211
s(I3
I9
tp212
Ns(I2
I3
tp213
Ns(I1
I9
tp214
Ns(I8
I7
tp215
Ns(I4
I2
tp216
Ns(I9
I6
tp217
Ns(I6
I5
tp218
Ns(I5
I3
tp219
Ns(I11
I7
tp220
Ns(I10
I5
tp221
Ns(I7
I0
tp222
Ns(I6
I8
tp223
Ns(I12
I0
tp224
Ns(I11
I8
tp225
Ns(I17
I0
tp226
Ns(I16
I8
tp227
Ns(I14
I7
tp228
Ns(I13
I5
tp229
Ns(I19
I5
tp230
(g13
g14
(I209
I241
I42
I255
tp231
Rp232
tp233
s(I18
I7
tp234
(g13
g14
(I229
I22
I20
I255
tp235
Rp236
tp237
s(I0
I6
tp238
Ns(I15
I6
tp239
Ns(I20
I6
tp240
(g13
g14
(I229
I22
I20
I255
tp241
Rp242
tp243
s(I1
I7
tp244
Ns(I0
I9
tp245
Ns(I21
I7
tp246
(g13
g14
(I235
I25
I22
I255
tp247
Rp248
tp249
s(I3
I4
tp250
Ns(I2
I4
tp251
Ns(I8
I4
tp252
Ns(I5
I9
tp253
Ns(I4
I7
tp254
Ns(I9
I1
tp255
Ns(I6
I6
tp256
Ns(I5
I6
tp257
Ns(I11
I2
tp258
Ns(I10
I6
tp259
Ns(I7
I7
tp260
Ns(I12
I5
tp261
Ns(I17
I3
tp262
Ns(I15
I8
tp263
Ns(I14
I0
tp264
Ns(I13
I8
tp265
Ns(I20
I8
tp266
(g13
g14
(I29
I33
I216
I255
tp267
Rp268
tp269
s(I19
I0
tp270
(g13
g14
(I23
I30
I248
I255
tp271
Rp272
tp273
s(I18
I8
tp274
(g13
g14
(I20
I158
I70
I255
tp275
Rp276
tp277
s(I0
I3
tp278
Ns(I15
I5
tp279
Ns(I1
I2
tp280
Ns(I16
I1
tp281
Ns(I4
I9
tp282
Ns(I3
I3
tp283
Ns(I2
I9
tp284
Ns(I8
I1
tp285
Ns(I4
I4
tp286
Ns(I6
I3
tp287
Ns(I11
I1
tp288
Ns(I16
I7
tp289
(g13
g14
(I20
I158
I70
I255
tp290
Rp291
tp292
s(I0
I0
tp293
Ns(I21
I0
tp294
(g13
g14
(I23
I30
I248
I255
tp295
Rp296
tp297
s(I10
I1
tp298
Ns(I17
I4
tp299
Ns(I7
I9
tp300
Ns(I13
I1
tp301
Ns(I19
I9
tp302
(g13
g14
(I25
I33
I224
I255
tp303
Rp304
tp305
s(I18
I3
tp306
Ns(I17
I9
tp307
(g13
g14
(I25
I33
I224
I255
tp308
Rp309
tp310
s(I15
I2
tp311
Ns(I20
I2
tp312
Ns(I21
I3
tp313
Ns(I3
I8
tp314
Ns(I2
I0
tp315
Ns(I1
I8
tp316
Ns(I8
I8
tp317
Ns(I4
I3
tp318
Ns(I9
I5
tp319
Ns(I5
I2
tp320
Ns(I11
I6
tp321
Ns(I10
I2
tp322
NssS'time'
p323
F1390395140.385
s.(dp0
S'trigger'
p1
S'7'
p2
sS'matrix'
p3
(dp4
(I7
I3
tp5
Ns(I6
I9
tp6
Ns(I12
I1
tp7
Ns(I16
I6
tp8
Ns(I16
I9
tp9
(S'block'
p10
cpygame
__color_constructor
p11
(I25
I32
I199
I255
tp12
Rp13
tp14
s(I14
I4
tp15
Ns(I13
I4
tp16
Ns(I19
I4
tp17
(g10
g11
(I209
I241
I42
I255
tp18
Rp19
tp20
s(I18
I4
tp21
Ns(I0
I7
tp22
Ns(I15
I1
tp23
Ns(I21
I9
tp24
(g10
g11
(I9
I225
I210
I255
tp25
Rp26
tp27
s(I20
I7
tp28
(g10
g11
(I235
I25
I22
I255
tp29
Rp30
tp31
s(I1
I6
tp32
Ns(I21
I6
tp33
(g10
g11
(I235
I25
I22
I255
tp34
Rp35
tp36
s(I3
I7
tp37
Ns(I2
I5
tp38
Ns(I8
I5
tp39
Ns(I5
I8
tp40
Ns(I4
I0
tp41
Ns(I10
I8
tp42
Ns(I9
I0
tp43
Ns(I6
I7
tp44
Ns(I5
I5
tp45
Ns(I11
I5
tp46
Ns(I10
I7
tp47
Ns(I16
I3
tp48
Ns(I17
I7
tp49
(g10
g11
(I20
I158
I70
I255
tp50
Rp51
tp52
s(I12
I6
tp53
Ns(I8
I8
tp54
Ns(I17
I2
tp55
Ns(I14
I1
tp56
Ns(I13
I7
tp57
Ns(I20
I9
tp58
(g10
g11
(I25
I33
I224
I255
tp59
Rp60
tp61
s(I19
I3
tp62
Ns(I18
I9
tp63
(g10
g11
(I25
I33
I224
I255
tp64
Rp65
tp66
s(I0
I4
tp67
Ns(I15
I4
tp68
Ns(I20
I4
tp69
(g10
g11
(I209
I241
I42
I255
tp70
Rp71
tp72
s(I1
I1
tp73
Ns(I3
I2
tp74
Ns(I2
I6
tp75
Ns(I8
I2
tp76
Ns(I4
I5
tp77
Ns(I9
I3
tp78
Ns(I6
I0
tp79
Ns(I11
I0
tp80
Ns(I7
I5
tp81
Ns(I7
I0
tp82
Ns(I14
I2
tp83
Ns(I0
I1
tp84
Ns(I3
I1
tp85
Ns(I9
I9
tp86
Ns(I7
I8
tp87
Ns(I14
I8
tp88
Ns(I13
I0
tp89
Ns(I12
I8
tp90
Ns(I19
I8
tp91
(g10
g11
(I29
I33
I216
I255
tp92
Rp93
tp94
s(I18
I0
tp95
(g10
g11
(I23
I30
I248
I255
tp96
Rp97
tp98
s(I17
I8
tp99
(g10
g11
(I20
I158
I70
I255
tp100
Rp101
tp102
s(I20
I3
tp103
Ns(I21
I2
tp104
Ns(I2
I1
tp105
Ns(I8
I9
tp106
Ns(I9
I4
tp107
Ns(I5
I1
tp108
Ns(I10
I3
tp109
Ns(I7
I2
tp110
Ns(I12
I2
tp111
Ns(I17
I6
tp112
Ns(I14
I5
tp113
Ns(I13
I3
tp114
Ns(I19
I7
tp115
(g10
g11
(I229
I22
I20
I255
tp116
Rp117
tp118
s(I18
I5
tp119
Ns(I7
I1
tp120
Ns(I15
I0
tp121
Ns(I21
I8
tp122
(g10
g11
(I29
I33
I216
I255
tp123
Rp124
tp125
s(I20
I0
tp126
(g10
g11
(I23
I30
I248
I255
tp127
Rp128
tp129
s(I1
I5
tp130
Ns(I21
I5
tp131
(g10
g11
(I184
I238
I36
I255
tp132
Rp133
tp134
s(I3
I6
tp135
Ns(I2
I2
tp136
Ns(I8
I6
tp137
Ns(I4
I1
tp138
Ns(I10
I9
tp139
Ns(I9
I7
tp140
Ns(I6
I4
tp141
Ns(I5
I4
tp142
Ns(I11
I4
tp143
Ns(I10
I4
tp144
Ns(I16
I4
tp145
Ns(I12
I7
tp146
Ns(I11
I9
tp147
Ns(I17
I1
tp148
Ns(I14
I6
tp149
Ns(I13
I6
tp150
Ns(I19
I2
tp151
Ns(I18
I6
tp152
Ns(I0
I5
tp153
Ns(I15
I7
tp154
Ns(I20
I5
tp155
(g10
g11
(I209
I241
I42
I255
tp156
Rp157
tp158
s(I1
I0
tp159
Ns(I0
I8
tp160
Ns(I3
I5
tp161
Ns(I2
I7
tp162
Ns(I8
I3
tp163
Ns(I4
I6
tp164
Ns(I9
I2
tp165
Ns(I6
I1
tp166
Ns(I5
I7
tp167
Ns(I11
I3
tp168
Ns(I7
I4
tp169
Ns(I12
I4
tp170
Ns(I15
I9
tp171
(g10
g11
(I25
I32
I199
I255
tp172
Rp173
tp174
s(I14
I3
tp175
Ns(I13
I9
tp176
(g10
g11
(I25
I32
I199
I255
tp177
Rp178
tp179
s(I19
I1
tp180
(g10
g11
(I23
I39
I242
I255
tp181
Rp182
tp183
s(I0
I2
tp184
Ns(I1
I3
tp185
Ns(I4
I8
tp186
Ns(I3
I0
tp187
Ns(I2
I8
tp188
Ns(I9
I8
tp189
Ns(I8
I0
tp190
Ns(I6
I2
tp191
Ns(I14
I9
tp192
(g10
g11
(I25
I32
I199
I255
tp193
Rp194
tp195
s(I12
I9
tp196
Ns(I18
I1
tp197
Ns(I21
I1
tp198
(g10
g11
(I23
I39
I242
I255
tp199
Rp200
tp201
s(I5
I0
tp202
Ns(I10
I0
tp203
Ns(I12
I3
tp204
Ns(I17
I5
tp205
Ns(I7
I6
tp206
Ns(I13
I2
tp207
Ns(I19
I6
tp208
(g10
g11
(I229
I22
I20
I255
tp209
Rp210
tp211
s(I18
I2
tp212
Ns(I15
I3
tp213
Ns(I20
I1
tp214
(g10
g11
(I23
I39
I242
I255
tp215
Rp216
tp217
s(I1
I4
tp218
Ns(I7
I7
tp219
Ns(I21
I4
tp220
(g10
g11
(I184
I238
I36
I255
tp221
Rp222
tp223
s(I3
I9
tp224
Ns(I2
I3
tp225
Ns(I1
I9
tp226
Ns(I8
I7
tp227
Ns(I4
I2
tp228
Ns(I9
I6
tp229
Ns(I6
I5
tp230
Ns(I5
I3
tp231
Ns(I11
I7
tp232
Ns(I10
I5
tp233
Ns(I16
I5
tp234
Ns(I6
I8
tp235
Ns(I12
I0
tp236
Ns(I11
I8
tp237
Ns(I17
I0
tp238
Ns(I16
I8
tp239
Ns(I14
I7
tp240
Ns(I13
I5
tp241
Ns(I19
I5
tp242
(g10
g11
(I209
I241
I42
I255
tp243
Rp244
tp245
s(I18
I7
tp246
(g10
g11
(I229
I22
I20
I255
tp247
Rp248
tp249
s(I0
I6
tp250
Ns(I15
I6
tp251
Ns(I20
I6
tp252
(g10
g11
(I229
I22
I20
I255
tp253
Rp254
tp255
s(I1
I7
tp256
Ns(I0
I9
tp257
Ns(I21
I7
tp258
(g10
g11
(I235
I25
I22
I255
tp259
Rp260
tp261
s(I3
I4
tp262
Ns(I2
I4
tp263
Ns(I8
I4
tp264
Ns(I5
I9
tp265
Ns(I4
I7
tp266
Ns(I9
I1
tp267
Ns(I6
I6
tp268
Ns(I5
I6
tp269
Ns(I11
I2
tp270
Ns(I10
I6
tp271
Ns(I16
I2
tp272
Ns(I12
I5
tp273
Ns(I17
I3
tp274
Ns(I15
I8
tp275
Ns(I14
I0
tp276
Ns(I13
I8
tp277
Ns(I20
I8
tp278
(g10
g11
(I29
I33
I216
I255
tp279
Rp280
tp281
s(I19
I0
tp282
(g10
g11
(I23
I30
I248
I255
tp283
Rp284
tp285
s(I18
I8
tp286
(g10
g11
(I20
I158
I70
I255
tp287
Rp288
tp289
s(I0
I3
tp290
Ns(I15
I5
tp291
Ns(I1
I2
tp292
Ns(I16
I1
tp293
Ns(I4
I9
tp294
Ns(I3
I3
tp295
Ns(I2
I9
tp296
Ns(I8
I1
tp297
Ns(I4
I4
tp298
Ns(I6
I3
tp299
Ns(I11
I1
tp300
Ns(I16
I7
tp301
(g10
g11
(I20
I158
I70
I255
tp302
Rp303
tp304
s(I0
I0
tp305
Ns(I21
I0
tp306
(g10
g11
(I23
I30
I248
I255
tp307
Rp308
tp309
s(I10
I1
tp310
Ns(I17
I4
tp311
Ns(I7
I9
tp312
Ns(I13
I1
tp313
Ns(I19
I9
tp314
(g10
g11
(I25
I33
I224
I255
tp315
Rp316
tp317
s(I18
I3
tp318
Ns(I17
I9
tp319
(g10
g11
(I25
I33
I224
I255
tp320
Rp321
tp322
s(I15
I2
tp323
Ns(I20
I2
tp324
Ns(I21
I3
tp325
Ns(I3
I8
tp326
Ns(I2
I0
tp327
Ns(I1
I8
tp328
Ns(I16
I0
tp329
Ns(I4
I3
tp330
Ns(I9
I5
tp331
Ns(I5
I2
tp332
Ns(I11
I6
tp333
Ns(I10
I2
tp334
NssS'time'
p335
F1390395143.185
s.(dp0
S'trigger'
p1
S'7'
p2
sS'matrix'
p3
(dp4
(I7
I3
tp5
Ns(I6
I9
tp6
Ns(I12
I1
tp7
Ns(I16
I6
tp8
Ns(I16
I9
tp9
(S'block'
p10
cpygame
__color_constructor
p11
(I25
I32
I199
I255
tp12
Rp13
tp14
s(I14
I4
tp15
Ns(I13
I4
tp16
Ns(I19
I4
tp17
(g10
g11
(I209
I241
I42
I255
tp18
Rp19
tp20
s(I18
I4
tp21
(g10
g11
(I212
I144
I13
I255
tp22
Rp23
tp24
s(I0
I7
tp25
Ns(I15
I1
tp26
Ns(I21
I9
tp27
(g10
g11
(I9
I225
I210
I255
tp28
Rp29
tp30
s(I20
I7
tp31
(g10
g11
(I235
I25
I22
I255
tp32
Rp33
tp34
s(I1
I6
tp35
Ns(I21
I6
tp36
(g10
g11
(I235
I25
I22
I255
tp37
Rp38
tp39
s(I3
I7
tp40
Ns(I2
I5
tp41
Ns(I8
I5
tp42
Ns(I5
I8
tp43
Ns(I4
I0
tp44
Ns(I10
I8
tp45
Ns(I9
I0
tp46
Ns(I6
I7
tp47
Ns(I5
I5
tp48
Ns(I11
I5
tp49
Ns(I10
I7
tp50
Ns(I16
I3
tp51
Ns(I17
I7
tp52
(g10
g11
(I20
I158
I70
I255
tp53
Rp54
tp55
s(I12
I6
tp56
Ns(I17
I2
tp57
Ns(I14
I1
tp58
Ns(I13
I7
tp59
Ns(I20
I9
tp60
(g10
g11
(I25
I33
I224
I255
tp61
Rp62
tp63
s(I19
I3
tp64
Ns(I18
I9
tp65
(g10
g11
(I25
I33
I224
I255
tp66
Rp67
tp68
s(I0
I4
tp69
Ns(I15
I4
tp70
Ns(I20
I4
tp71
(g10
g11
(I209
I241
I42
I255
tp72
Rp73
tp74
s(I1
I1
tp75
Ns(I3
I2
tp76
Ns(I2
I6
tp77
Ns(I8
I2
tp78
Ns(I4
I5
tp79
Ns(I9
I3
tp80
Ns(I6
I0
tp81
Ns(I11
I0
tp82
Ns(I7
I5
tp83
Ns(I16
I5
tp84
Ns(I14
I2
tp85
Ns(I0
I1
tp86
Ns(I3
I1
tp87
Ns(I9
I9
tp88
Ns(I7
I8
tp89
Ns(I14
I8
tp90
Ns(I13
I0
tp91
Ns(I12
I8
tp92
Ns(I19
I8
tp93
(g10
g11
(I29
I33
I216
I255
tp94
Rp95
tp96
s(I18
I0
tp97
(g10
g11
(I23
I30
I248
I255
tp98
Rp99
tp100
s(I17
I8
tp101
(g10
g11
(I20
I158
I70
I255
tp102
Rp103
tp104
s(I20
I3
tp105
Ns(I21
I2
tp106
Ns(I2
I1
tp107
Ns(I8
I9
tp108
Ns(I9
I4
tp109
Ns(I5
I1
tp110
Ns(I10
I3
tp111
Ns(I7
I2
tp112
Ns(I12
I2
tp113
Ns(I17
I6
tp114
(g10
g11
(I212
I144
I13
I255
tp115
Rp116
tp117
s(I14
I5
tp118
Ns(I13
I3
tp119
Ns(I19
I7
tp120
(g10
g11
(I229
I22
I20
I255
tp121
Rp122
tp123
s(I18
I5
tp124
(g10
g11
(I212
I144
I13
I255
tp125
Rp126
tp127
s(I16
I4
tp128
Ns(I15
I0
tp129
Ns(I21
I8
tp130
(g10
g11
(I29
I33
I216
I255
tp131
Rp132
tp133
s(I20
I0
tp134
(g10
g11
(I23
I30
I248
I255
tp135
Rp136
tp137
s(I1
I5
tp138
Ns(I21
I5
tp139
(g10
g11
(I184
I238
I36
I255
tp140
Rp141
tp142
s(I3
I6
tp143
Ns(I2
I2
tp144
Ns(I8
I6
tp145
Ns(I4
I1
tp146
Ns(I10
I9
tp147
Ns(I9
I7
tp148
Ns(I6
I4
tp149
Ns(I5
I4
tp150
Ns(I11
I4
tp151
Ns(I10
I4
tp152
Ns(I7
I1
tp153
Ns(I12
I7
tp154
Ns(I11
I9
tp155
Ns(I17
I1
tp156
Ns(I14
I6
tp157
Ns(I13
I6
tp158
Ns(I19
I2
tp159
Ns(I18
I6
tp160
(g10
g11
(I212
I144
I13
I255
tp161
Rp162
tp163
s(I0
I5
tp164
Ns(I15
I7
tp165
Ns(I20
I5
tp166
(g10
g11
(I209
I241
I42
I255
tp167
Rp168
tp169
s(I1
I0
tp170
Ns(I0
I8
tp171
Ns(I3
I5
tp172
Ns(I2
I7
tp173
Ns(I8
I3
tp174
Ns(I4
I6
tp175
Ns(I9
I2
tp176
Ns(I6
I1
tp177
Ns(I5
I7
tp178
Ns(I11
I3
tp179
Ns(I7
I4
tp180
Ns(I12
I4
tp181
Ns(I15
I9
tp182
(g10
g11
(I25
I32
I199
I255
tp183
Rp184
tp185
s(I14
I3
tp186
Ns(I13
I9
tp187
(g10
g11
(I25
I32
I199
I255
tp188
Rp189
tp190
s(I19
I1
tp191
(g10
g11
(I23
I39
I242
I255
tp192
Rp193
tp194
s(I0
I2
tp195
Ns(I1
I3
tp196
Ns(I4
I8
tp197
Ns(I3
I0
tp198
Ns(I2
I8
tp199
Ns(I9
I8
tp200
Ns(I8
I0
tp201
Ns(I6
I2
tp202
Ns(I14
I9
tp203
(g10
g11
(I25
I32
I199
I255
tp204
Rp205
tp206
s(I12
I9
tp207
Ns(I18
I1
tp208
Ns(I16
I0
tp209
Ns(I21
I1
tp210
(g10
g11
(I23
I39
I242
I255
tp211
Rp212
tp213
s(I5
I0
tp214
Ns(I10
I0
tp215
Ns(I12
I3
tp216
Ns(I17
I5
tp217
Ns(I7
I6
tp218
Ns(I13
I2
tp219
Ns(I19
I6
tp220
(g10
g11
(I229
I22
I20
I255
tp221
Rp222
tp223
s(I18
I2
tp224
Ns(I15
I3
tp225
Ns(I20
I1
tp226
(g10
g11
(I23
I39
I242
I255
tp227
Rp228
tp229
s(I1
I4
tp230
Ns(I16
I2
tp231
Ns(I21
I4
tp232
(g10
g11
(I184
I238
I36
I255
tp233
Rp234
tp235
s(I3
I9
tp236
Ns(I2
I3
tp237
Ns(I1
I9
tp238
Ns(I8
I7
tp239
Ns(I4
I2
tp240
Ns(I9
I6
tp241
Ns(I6
I5
tp242
Ns(I5
I3
tp243
Ns(I11
I7
tp244
Ns(I10
I5
tp245
Ns(I7
I0
tp246
Ns(I6
I8
tp247
Ns(I12
I0
tp248
Ns(I11
I8
tp249
Ns(I17
I0
tp250
Ns(I16
I8
tp251
Ns(I14
I7
tp252
Ns(I13
I5
tp253
Ns(I19
I5
tp254
(g10
g11
(I209
I241
I42
I255
tp255
Rp256
tp257
s(I18
I7
tp258
(g10
g11
(I229
I22
I20
I255
tp259
Rp260
tp261
s(I0
I6
tp262
Ns(I15
I6
tp263
Ns(I20
I6
tp264
(g10
g11
(I229
I22
I20
I255
tp265
Rp266
tp267
s(I1
I7
tp268
Ns(I0
I9
tp269
Ns(I21
I7
tp270
(g10
g11
(I235
I25
I22
I255
tp271
Rp272
tp273
s(I3
I4
tp274
Ns(I2
I4
tp275
Ns(I8
I4
tp276
Ns(I5
I9
tp277
Ns(I4
I7
tp278
Ns(I9
I1
tp279
Ns(I6
I6
tp280
Ns(I5
I6
tp281
Ns(I11
I2
tp282
Ns(I10
I6
tp283
Ns(I7
I7
tp284
Ns(I12
I5
tp285
Ns(I17
I3
tp286
Ns(I15
I8
tp287
Ns(I14
I0
tp288
Ns(I13
I8
tp289
Ns(I20
I8
tp290
(g10
g11
(I29
I33
I216
I255
tp291
Rp292
tp293
s(I19
I0
tp294
(g10
g11
(I23
I30
I248
I255
tp295
Rp296
tp297
s(I18
I8
tp298
(g10
g11
(I20
I158
I70
I255
tp299
Rp300
tp301
s(I0
I3
tp302
Ns(I15
I5
tp303
Ns(I1
I2
tp304
Ns(I16
I1
tp305
Ns(I4
I9
tp306
Ns(I3
I3
tp307
Ns(I2
I9
tp308
Ns(I8
I1
tp309
Ns(I4
I4
tp310
Ns(I6
I3
tp311
Ns(I11
I1
tp312
Ns(I16
I7
tp313
(g10
g11
(I20
I158
I70
I255
tp314
Rp315
tp316
s(I0
I0
tp317
Ns(I21
I0
tp318
(g10
g11
(I23
I30
I248
I255
tp319
Rp320
tp321
s(I10
I1
tp322
Ns(I17
I4
tp323
Ns(I7
I9
tp324
Ns(I13
I1
tp325
Ns(I19
I9
tp326
(g10
g11
(I25
I33
I224
I255
tp327
Rp328
tp329
s(I18
I3
tp330
Ns(I17
I9
tp331
(g10
g11
(I25
I33
I224
I255
tp332
Rp333
tp334
s(I15
I2
tp335
Ns(I20
I2
tp336
Ns(I21
I3
tp337
Ns(I3
I8
tp338
Ns(I2
I0
tp339
Ns(I1
I8
tp340
Ns(I8
I8
tp341
Ns(I4
I3
tp342
Ns(I9
I5
tp343
Ns(I5
I2
tp344
Ns(I11
I6
tp345
Ns(I10
I2
tp346
NssS'time'
p347
F1390395146.786
s.(dp0
S'trigger'
p1
S'7'
p2
sS'matrix'
p3
(dp4
(I7
I3
tp5
Ns(I6
I9
tp6
Ns(I12
I1
tp7
Ns(I16
I6
tp8
(S'block'
p9
cpygame
__color_constructor
p10
(I232
I22
I23
I255
tp11
Rp12
tp13
s(I16
I9
tp14
(g9
g10
(I25
I32
I199
I255
tp15
Rp16
tp17
s(I14
I4
tp18
Ns(I13
I4
tp19
Ns(I19
I4
tp20
(g9
g10
(I209
I241
I42
I255
tp21
Rp22
tp23
s(I18
I4
tp24
(g9
g10
(I212
I144
I13
I255
tp25
Rp26
tp27
s(I0
I7
tp28
Ns(I15
I1
tp29
Ns(I21
I9
tp30
(g9
g10
(I9
I225
I210
I255
tp31
Rp32
tp33
s(I20
I7
tp34
(g9
g10
(I235
I25
I22
I255
tp35
Rp36
tp37
s(I1
I6
tp38
Ns(I21
I6
tp39
(g9
g10
(I235
I25
I22
I255
tp40
Rp41
tp42
s(I3
I7
tp43
Ns(I2
I5
tp44
Ns(I8
I5
tp45
Ns(I5
I8
tp46
Ns(I4
I0
tp47
Ns(I10
I8
tp48
Ns(I9
I0
tp49
Ns(I6
I7
tp50
Ns(I5
I5
tp51
Ns(I11
I5
tp52
Ns(I10
I7
tp53
Ns(I16
I3
tp54
Ns(I17
I7
tp55
(g9
g10
(I20
I158
I70
I255
tp56
Rp57
tp58
s(I12
I6
tp59
Ns(I8
I8
tp60
Ns(I17
I2
tp61
Ns(I14
I1
tp62
Ns(I13
I7
tp63
Ns(I20
I9
tp64
(g9
g10
(I25
I33
I224
I255
tp65
Rp66
tp67
s(I19
I3
tp68
Ns(I18
I9
tp69
(g9
g10
(I25
I33
I224
I255
tp70
Rp71
tp72
s(I0
I4
tp73
Ns(I15
I4
tp74
Ns(I20
I4
tp75
(g9
g10
(I209
I241
I42
I255
tp76
Rp77
tp78
s(I1
I1
tp79
Ns(I3
I2
tp80
Ns(I2
I6
tp81
Ns(I8
I2
tp82
Ns(I4
I5
tp83
Ns(I9
I3
tp84
Ns(I6
I0
tp85
Ns(I11
I0
tp86
Ns(I7
I5
tp87
Ns(I7
I0
tp88
Ns(I14
I2
tp89
Ns(I0
I1
tp90
Ns(I3
I1
tp91
Ns(I9
I9
tp92
Ns(I7
I8
tp93
Ns(I14
I8
tp94
Ns(I13
I0
tp95
Ns(I12
I8
tp96
Ns(I19
I8
tp97
(g9
g10
(I29
I33
I216
I255
tp98
Rp99
tp100
s(I18
I0
tp101
(g9
g10
(I23
I30
I248
I255
tp102
Rp103
tp104
s(I17
I8
tp105
(g9
g10
(I20
I158
I70
I255
tp106
Rp107
tp108
s(I20
I3
tp109
Ns(I21
I2
tp110
Ns(I2
I1
tp111
Ns(I8
I9
tp112
Ns(I9
I4
tp113
Ns(I5
I1
tp114
Ns(I10
I3
tp115
Ns(I7
I2
tp116
Ns(I12
I2
tp117
Ns(I17
I6
tp118
(g9
g10
(I212
I144
I13
I255
tp119
Rp120
tp121
s(I14
I5
tp122
Ns(I13
I3
tp123
Ns(I19
I7
tp124
(g9
g10
(I229
I22
I20
I255
tp125
Rp126
tp127
s(I18
I5
tp128
(g9
g10
(I212
I144
I13
I255
tp129
Rp130
tp131
s(I7
I1
tp132
Ns(I15
I0
tp133
Ns(I21
I8
tp134
(g9
g10
(I29
I33
I216
I255
tp135
Rp136
tp137
s(I20
I0
tp138
(g9
g10
(I23
I30
I248
I255
tp139
Rp140
tp141
s(I1
I5
tp142
Ns(I21
I5
tp143
(g9
g10
(I184
I238
I36
I255
tp144
Rp145
tp146
s(I3
I6
tp147
Ns(I2
I2
tp148
Ns(I8
I6
tp149
Ns(I4
I1
tp150
Ns(I10
I9
tp151
Ns(I9
I7
tp152
Ns(I6
I4
tp153
Ns(I5
I4
tp154
Ns(I11
I4
tp155
Ns(I10
I4
tp156
Ns(I16
I4
tp157
Ns(I12
I7
tp158
Ns(I11
I9
tp159
Ns(I17
I1
tp160
Ns(I14
I6
tp161
Ns(I13
I6
tp162
Ns(I19
I2
tp163
Ns(I18
I6
tp164
(g9
g10
(I212
I144
I13
I255
tp165
Rp166
tp167
s(I0
I5
tp168
Ns(I15
I7
tp169
Ns(I20
I5
tp170
(g9
g10
(I209
I241
I42
I255
tp171
Rp172
tp173
s(I1
I0
tp174
Ns(I0
I8
tp175
Ns(I3
I5
tp176
Ns(I2
I7
tp177
Ns(I8
I3
tp178
Ns(I4
I6
tp179
Ns(I9
I2
tp180
Ns(I6
I1
tp181
Ns(I5
I7
tp182
Ns(I11
I3
tp183
Ns(I7
I4
tp184
Ns(I12
I4
tp185
Ns(I15
I9
tp186
(g9
g10
(I25
I32
I199
I255
tp187
Rp188
tp189
s(I14
I3
tp190
Ns(I13
I9
tp191
(g9
g10
(I25
I32
I199
I255
tp192
Rp193
tp194
s(I19
I1
tp195
(g9
g10
(I23
I39
I242
I255
tp196
Rp197
tp198
s(I0
I2
tp199
Ns(I1
I3
tp200
Ns(I4
I8
tp201
Ns(I3
I0
tp202
Ns(I2
I8
tp203
Ns(I9
I8
tp204
Ns(I8
I0
tp205
Ns(I6
I2
tp206
Ns(I14
I9
tp207
(g9
g10
(I25
I32
I199
I255
tp208
Rp209
tp210
s(I12
I9
tp211
Ns(I18
I1
tp212
Ns(I21
I1
tp213
(g9
g10
(I23
I39
I242
I255
tp214
Rp215
tp216
s(I5
I0
tp217
Ns(I10
I0
tp218
Ns(I12
I3
tp219
Ns(I17
I5
tp220
(g9
g10
(I232
I22
I23
I255
tp221
Rp222
tp223
s(I7
I6
tp224
Ns(I13
I2
tp225
Ns(I19
I6
tp226
(g9
g10
(I229
I22
I20
I255
tp227
Rp228
tp229
s(I18
I2
tp230
Ns(I15
I3
tp231
Ns(I20
I1
tp232
(g9
g10
(I23
I39
I242
I255
tp233
Rp234
tp235
s(I1
I4
tp236
Ns(I7
I7
tp237
Ns(I21
I4
tp238
(g9
g10
(I184
I238
I36
I255
tp239
Rp240
tp241
s(I3
I9
tp242
Ns(I2
I3
tp243
Ns(I1
I9
tp244
Ns(I8
I7
tp245
Ns(I4
I2
tp246
Ns(I9
I6
tp247
Ns(I6
I5
tp248
Ns(I5
I3
tp249
Ns(I11
I7
tp250
Ns(I10
I5
tp251
Ns(I16
I5
tp252
(g9
g10
(I232
I22
I23
I255
tp253
Rp254
tp255
s(I6
I8
tp256
Ns(I12
I0
tp257
Ns(I11
I8
tp258
Ns(I17
I0
tp259
Ns(I16
I8
tp260
Ns(I14
I7
tp261
Ns(I13
I5
tp262
Ns(I19
I5
tp263
(g9
g10
(I209
I241
I42
I255
tp264
Rp265
tp266
s(I18
I7
tp267
(g9
g10
(I229
I22
I20
I255
tp268
Rp269
tp270
s(I0
I6
tp271
Ns(I15
I6
tp272
(g9
g10
(I232
I22
I23
I255
tp273
Rp274
tp275
s(I20
I6
tp276
(g9
g10
(I229
I22
I20
I255
tp277
Rp278
tp279
s(I1
I7
tp280
Ns(I0
I9
tp281
Ns(I21
I7
tp282
(g9
g10
(I235
I25
I22
I255
tp283
Rp284
tp285
s(I3
I4
tp286
Ns(I2
I4
tp287
Ns(I8
I4
tp288
Ns(I5
I9
tp289
Ns(I4
I7
tp290
Ns(I9
I1
tp291
Ns(I6
I6
tp292
Ns(I5
I6
tp293
Ns(I11
I2
tp294
Ns(I10
I6
tp295
Ns(I16
I2
tp296
Ns(I12
I5
tp297
Ns(I17
I3
tp298
Ns(I15
I8
tp299
Ns(I14
I0
tp300
Ns(I13
I8
tp301
Ns(I20
I8
tp302
(g9
g10
(I29
I33
I216
I255
tp303
Rp304
tp305
s(I19
I0
tp306
(g9
g10
(I23
I30
I248
I255
tp307
Rp308
tp309
s(I18
I8
tp310
(g9
g10
(I20
I158
I70
I255
tp311
Rp312
tp313
s(I0
I3
tp314
Ns(I15
I5
tp315
Ns(I1
I2
tp316
Ns(I16
I1
tp317
Ns(I4
I9
tp318
Ns(I3
I3
tp319
Ns(I2
I9
tp320
Ns(I8
I1
tp321
Ns(I4
I4
tp322
Ns(I6
I3
tp323
Ns(I11
I1
tp324
Ns(I16
I7
tp325
(g9
g10
(I20
I158
I70
I255
tp326
Rp327
tp328
s(I0
I0
tp329
Ns(I21
I0
tp330
(g9
g10
(I23
I30
I248
I255
tp331
Rp332
tp333
s(I10
I1
tp334
Ns(I17
I4
tp335
Ns(I7
I9
tp336
Ns(I13
I1
tp337
Ns(I19
I9
tp338
(g9
g10
(I25
I33
I224
I255
tp339
Rp340
tp341
s(I18
I3
tp342
Ns(I17
I9
tp343
(g9
g10
(I25
I33
I224
I255
tp344
Rp345
tp346
s(I15
I2
tp347
Ns(I20
I2
tp348
Ns(I21
I3
tp349
Ns(I3
I8
tp350
Ns(I2
I0
tp351
Ns(I1
I8
tp352
Ns(I16
I0
tp353
Ns(I4
I3
tp354
Ns(I9
I5
tp355
Ns(I5
I2
tp356
Ns(I11
I6
tp357
Ns(I10
I2
tp358
NssS'time'
p359
F1390395149.985
s.(dp0
S'trigger'
p1
S'7'
p2
sS'matrix'
p3
(dp4
(I7
I3
tp5
Ns(I6
I9
tp6
Ns(I12
I1
tp7
Ns(I16
I6
tp8
(S'block'
p9
cpygame
__color_constructor
p10
(I232
I22
I23
I255
tp11
Rp12
tp13
s(I16
I9
tp14
(g9
g10
(I25
I32
I199
I255
tp15
Rp16
tp17
s(I14
I4
tp18
Ns(I13
I4
tp19
Ns(I19
I4
tp20
(g9
g10
(I209
I241
I42
I255
tp21
Rp22
tp23
s(I18
I4
tp24
(g9
g10
(I212
I144
I13
I255
tp25
Rp26
tp27
s(I0
I7
tp28
Ns(I15
I1
tp29
Ns(I21
I9
tp30
(g9
g10
(I9
I225
I210
I255
tp31
Rp32
tp33
s(I20
I7
tp34
(g9
g10
(I235
I25
I22
I255
tp35
Rp36
tp37
s(I1
I6
tp38
Ns(I21
I6
tp39
(g9
g10
(I235
I25
I22
I255
tp40
Rp41
tp42
s(I3
I7
tp43
Ns(I2
I5
tp44
Ns(I8
I5
tp45
Ns(I5
I8
tp46
Ns(I4
I0
tp47
Ns(I10
I8
tp48
Ns(I9
I0
tp49
Ns(I6
I7
tp50
Ns(I5
I5
tp51
Ns(I11
I5
tp52
Ns(I10
I7
tp53
Ns(I16
I3
tp54
Ns(I17
I7
tp55
(g9
g10
(I20
I158
I70
I255
tp56
Rp57
tp58
s(I12
I6
tp59
Ns(I17
I2
tp60
Ns(I14
I1
tp61
Ns(I13
I7
tp62
Ns(I20
I9
tp63
(g9
g10
(I25
I33
I224
I255
tp64
Rp65
tp66
s(I19
I3
tp67
Ns(I18
I9
tp68
(g9
g10
(I25
I33
I224
I255
tp69
Rp70
tp71
s(I0
I4
tp72
Ns(I15
I4
tp73
Ns(I20
I4
tp74
(g9
g10
(I209
I241
I42
I255
tp75
Rp76
tp77
s(I1
I1
tp78
Ns(I3
I2
tp79
Ns(I2
I6
tp80
Ns(I8
I2
tp81
Ns(I4
I5
tp82
Ns(I9
I3
tp83
Ns(I6
I0
tp84
Ns(I11
I0
tp85
Ns(I7
I5
tp86
Ns(I16
I5
tp87
(g9
g10
(I232
I22
I23
I255
tp88
Rp89
tp90
s(I14
I2
tp91
Ns(I0
I1
tp92
Ns(I3
I1
tp93
Ns(I9
I9
tp94
Ns(I7
I8
tp95
Ns(I14
I8
tp96
Ns(I13
I0
tp97
Ns(I12
I8
tp98
Ns(I19
I8
tp99
(g9
g10
(I29
I33
I216
I255
tp100
Rp101
tp102
s(I18
I0
tp103
(g9
g10
(I23
I30
I248
I255
tp104
Rp105
tp106
s(I17
I8
tp107
(g9
g10
(I20
I158
I70
I255
tp108
Rp109
tp110
s(I20
I3
tp111
Ns(I21
I2
tp112
Ns(I2
I1
tp113
Ns(I8
I9
tp114
Ns(I9
I4
tp115
Ns(I5
I1
tp116
Ns(I10
I3
tp117
Ns(I7
I2
tp118
Ns(I12
I2
tp119
Ns(I17
I6
tp120
(g9
g10
(I212
I144
I13
I255
tp121
Rp122
tp123
s(I14
I5
tp124
Ns(I13
I3
tp125
Ns(I19
I7
tp126
(g9
g10
(I229
I22
I20
I255
tp127
Rp128
tp129
s(I18
I5
tp130
(g9
g10
(I212
I144
I13
I255
tp131
Rp132
tp133
s(I16
I4
tp134
Ns(I15
I0
tp135
Ns(I21
I8
tp136
(g9
g10
(I29
I33
I216
I255
tp137
Rp138
tp139
s(I20
I0
tp140
(g9
g10
(I23
I30
I248
I255
tp141
Rp142
tp143
s(I1
I5
tp144
Ns(I21
I5
tp145
(g9
g10
(I184
I238
I36
I255
tp146
Rp147
tp148
s(I3
I6
tp149
Ns(I2
I2
tp150
Ns(I8
I6
tp151
Ns(I4
I1
tp152
Ns(I10
I9
tp153
Ns(I9
I7
tp154
Ns(I6
I4
tp155
Ns(I5
I4
tp156
Ns(I11
I4
tp157
Ns(I10
I4
tp158
Ns(I7
I1
tp159
Ns(I12
I7
tp160
Ns(I11
I9
tp161
Ns(I17
I1
tp162
(g9
g10
(I25
I195
I66
I255
tp163
Rp164
tp165
s(I14
I6
tp166
Ns(I13
I6
tp167
Ns(I19
I2
tp168
Ns(I18
I6
tp169
(g9
g10
(I212
I144
I13
I255
tp170
Rp171
tp172
s(I0
I5
tp173
Ns(I15
I7
tp174
Ns(I20
I5
tp175
(g9
g10
(I209
I241
I42
I255
tp176
Rp177
tp178
s(I1
I0
tp179
Ns(I0
I8
tp180
Ns(I3
I5
tp181
Ns(I2
I7
tp182
Ns(I8
I3
tp183
Ns(I4
I6
tp184
Ns(I9
I2
tp185
Ns(I6
I1
tp186
Ns(I5
I7
tp187
Ns(I11
I3
tp188
Ns(I7
I4
tp189
Ns(I12
I4
tp190
Ns(I15
I9
tp191
(g9
g10
(I25
I32
I199
I255
tp192
Rp193
tp194
s(I14
I3
tp195
Ns(I13
I9
tp196
(g9
g10
(I25
I32
I199
I255
tp197
Rp198
tp199
s(I19
I1
tp200
(g9
g10
(I23
I39
I242
I255
tp201
Rp202
tp203
s(I0
I2
tp204
Ns(I1
I3
tp205
Ns(I4
I8
tp206
Ns(I3
I0
tp207
Ns(I2
I8
tp208
Ns(I9
I8
tp209
Ns(I8
I0
tp210
Ns(I6
I2
tp211
Ns(I14
I9
tp212
(g9
g10
(I25
I32
I199
I255
tp213
Rp214
tp215
s(I12
I9
tp216
Ns(I18
I1
tp217
(g9
g10
(I25
I195
I66
I255
tp218
Rp219
tp220
s(I16
I0
tp221
(g9
g10
(I25
I195
I66
I255
tp222
Rp223
tp224
s(I21
I1
tp225
(g9
g10
(I23
I39
I242
I255
tp226
Rp227
tp228
s(I5
I0
tp229
Ns(I10
I0
tp230
Ns(I12
I3
tp231
Ns(I17
I5
tp232
(g9
g10
(I232
I22
I23
I255
tp233
Rp234
tp235
s(I7
I6
tp236
Ns(I13
I2
tp237
Ns(I19
I6
tp238
(g9
g10
(I229
I22
I20
I255
tp239
Rp240
tp241
s(I18
I2
tp242
Ns(I15
I3
tp243
Ns(I20
I1
tp244
(g9
g10
(I23
I39
I242
I255
tp245
Rp246
tp247
s(I1
I4
tp248
Ns(I16
I2
tp249
Ns(I21
I4
tp250
(g9
g10
(I184
I238
I36
I255
tp251
Rp252
tp253
s(I3
I9
tp254
Ns(I2
I3
tp255
Ns(I1
I9
tp256
Ns(I8
I7
tp257
Ns(I4
I2
tp258
Ns(I9
I6
tp259
Ns(I6
I5
tp260
Ns(I5
I3
tp261
Ns(I11
I7
tp262
Ns(I10
I5
tp263
Ns(I7
I0
tp264
Ns(I6
I8
tp265
Ns(I12
I0
tp266
Ns(I11
I8
tp267
Ns(I17
I0
tp268
(g9
g10
(I25
I195
I66
I255
tp269
Rp270
tp271
s(I16
I8
tp272
Ns(I14
I7
tp273
Ns(I13
I5
tp274
Ns(I19
I5
tp275
(g9
g10
(I209
I241
I42
I255
tp276
Rp277
tp278
s(I18
I7
tp279
(g9
g10
(I229
I22
I20
I255
tp280
Rp281
tp282
s(I0
I6
tp283
Ns(I15
I6
tp284
(g9
g10
(I232
I22
I23
I255
tp285
Rp286
tp287
s(I20
I6
tp288
(g9
g10
(I229
I22
I20
I255
tp289
Rp290
tp291
s(I1
I7
tp292
Ns(I0
I9
tp293
Ns(I21
I7
tp294
(g9
g10
(I235
I25
I22
I255
tp295
Rp296
tp297
s(I3
I4
tp298
Ns(I2
I4
tp299
Ns(I8
I4
tp300
Ns(I5
I9
tp301
Ns(I4
I7
tp302
Ns(I9
I1
tp303
Ns(I6
I6
tp304
Ns(I5
I6
tp305
Ns(I11
I2
tp306
Ns(I10
I6
tp307
Ns(I7
I7
tp308
Ns(I12
I5
tp309
Ns(I17
I3
tp310
Ns(I15
I8
tp311
Ns(I14
I0
tp312
Ns(I13
I8
tp313
Ns(I20
I8
tp314
(g9
g10
(I29
I33
I216
I255
tp315
Rp316
tp317
s(I19
I0
tp318
(g9
g10
(I23
I30
I248
I255
tp319
Rp320
tp321
s(I18
I8
tp322
(g9
g10
(I20
I158
I70
I255
tp323
Rp324
tp325
s(I0
I3
tp326
Ns(I15
I5
tp327
Ns(I1
I2
tp328
Ns(I16
I1
tp329
Ns(I4
I9
tp330
Ns(I3
I3
tp331
Ns(I2
I9
tp332
Ns(I8
I1
tp333
Ns(I4
I4
tp334
Ns(I6
I3
tp335
Ns(I11
I1
tp336
Ns(I16
I7
tp337
(g9
g10
(I20
I158
I70
I255
tp338
Rp339
tp340
s(I0
I0
tp341
Ns(I21
I0
tp342
(g9
g10
(I23
I30
I248
I255
tp343
Rp344
tp345
s(I10
I1
tp346
Ns(I17
I4
tp347
Ns(I7
I9
tp348
Ns(I13
I1
tp349
Ns(I19
I9
tp350
(g9
g10
(I25
I33
I224
I255
tp351
Rp352
tp353
s(I18
I3
tp354
Ns(I17
I9
tp355
(g9
g10
(I25
I33
I224
I255
tp356
Rp357
tp358
s(I15
I2
tp359
Ns(I20
I2
tp360
Ns(I21
I3
tp361
Ns(I3
I8
tp362
Ns(I2
I0
tp363
Ns(I1
I8
tp364
Ns(I8
I8
tp365
Ns(I4
I3
tp366
Ns(I9
I5
tp367
Ns(I5
I2
tp368
Ns(I11
I6
tp369
Ns(I10
I2
tp370
NssS'time'
p371
F1390395153.377
s.(dp0
S'trigger'
p1
S'7'
p2
sS'matrix'
p3
(dp4
(I7
I3
tp5
Ns(I6
I9
tp6
Ns(I12
I1
tp7
Ns(I16
I6
tp8
(S'block'
p9
cpygame
__color_constructor
p10
(I232
I22
I23
I255
tp11
Rp12
tp13
s(I16
I9
tp14
(g9
g10
(I25
I32
I199
I255
tp15
Rp16
tp17
s(I14
I4
tp18
Ns(I13
I4
tp19
Ns(I19
I4
tp20
(g9
g10
(I209
I241
I42
I255
tp21
Rp22
tp23
s(I18
I4
tp24
(g9
g10
(I212
I144
I13
I255
tp25
Rp26
tp27
s(I0
I7
tp28
Ns(I15
I1
tp29
Ns(I21
I9
tp30
(g9
g10
(I9
I225
I210
I255
tp31
Rp32
tp33
s(I20
I7
tp34
(g9
g10
(I235
I25
I22
I255
tp35
Rp36
tp37
s(I1
I6
tp38
Ns(I21
I6
tp39
(g9
g10
(I235
I25
I22
I255
tp40
Rp41
tp42
s(I3
I7
tp43
Ns(I2
I5
tp44
Ns(I8
I5
tp45
Ns(I5
I8
tp46
Ns(I4
I0
tp47
Ns(I10
I8
tp48
Ns(I9
I0
tp49
Ns(I6
I7
tp50
Ns(I5
I5
tp51
Ns(I11
I5
tp52
Ns(I10
I7
tp53
Ns(I16
I3
tp54
Ns(I17
I7
tp55
(g9
g10
(I20
I158
I70
I255
tp56
Rp57
tp58
s(I12
I6
tp59
Ns(I8
I8
tp60
Ns(I17
I2
tp61
Ns(I14
I1
tp62
Ns(I13
I7
tp63
Ns(I20
I9
tp64
(g9
g10
(I25
I33
I224
I255
tp65
Rp66
tp67
s(I19
I3
tp68
Ns(I18
I9
tp69
(g9
g10
(I25
I33
I224
I255
tp70
Rp71
tp72
s(I0
I4
tp73
Ns(I15
I4
tp74
Ns(I20
I4
tp75
(g9
g10
(I209
I241
I42
I255
tp76
Rp77
tp78
s(I1
I1
tp79
Ns(I3
I2
tp80
Ns(I2
I6
tp81
Ns(I8
I2
tp82
Ns(I4
I5
tp83
Ns(I9
I3
tp84
Ns(I6
I0
tp85
Ns(I11
I0
tp86
Ns(I7
I5
tp87
Ns(I7
I0
tp88
Ns(I14
I2
tp89
Ns(I0
I1
tp90
Ns(I3
I1
tp91
Ns(I9
I9
tp92
Ns(I7
I8
tp93
Ns(I14
I8
tp94
(g9
g10
(I251
I36
I182
I255
tp95
Rp96
tp97
s(I13
I0
tp98
Ns(I12
I8
tp99
Ns(I19
I8
tp100
(g9
g10
(I29
I33
I216
I255
tp101
Rp102
tp103
s(I18
I0
tp104
(g9
g10
(I23
I30
I248
I255
tp105
Rp106
tp107
s(I17
I8
tp108
(g9
g10
(I20
I158
I70
I255
tp109
Rp110
tp111
s(I20
I3
tp112
Ns(I21
I2
tp113
Ns(I2
I1
tp114
Ns(I8
I9
tp115
Ns(I9
I4
tp116
Ns(I5
I1
tp117
Ns(I10
I3
tp118
Ns(I7
I2
tp119
Ns(I12
I2
tp120
Ns(I17
I6
tp121
(g9
g10
(I212
I144
I13
I255
tp122
Rp123
tp124
s(I14
I5
tp125
Ns(I13
I3
tp126
Ns(I19
I7
tp127
(g9
g10
(I229
I22
I20
I255
tp128
Rp129
tp130
s(I18
I5
tp131
(g9
g10
(I212
I144
I13
I255
tp132
Rp133
tp134
s(I7
I1
tp135
Ns(I15
I0
tp136
Ns(I21
I8
tp137
(g9
g10
(I29
I33
I216
I255
tp138
Rp139
tp140
s(I20
I0
tp141
(g9
g10
(I23
I30
I248
I255
tp142
Rp143
tp144
s(I1
I5
tp145
Ns(I21
I5
tp146
(g9
g10
(I184
I238
I36
I255
tp147
Rp148
tp149
s(I3
I6
tp150
Ns(I2
I2
tp151
Ns(I8
I6
tp152
Ns(I4
I1
tp153
Ns(I10
I9
tp154
Ns(I9
I7
tp155
Ns(I6
I4
tp156
Ns(I5
I4
tp157
Ns(I11
I4
tp158
Ns(I10
I4
tp159
Ns(I16
I4
tp160
Ns(I12
I7
tp161
Ns(I11
I9
tp162
Ns(I17
I1
tp163
(g9
g10
(I25
I195
I66
I255
tp164
Rp165
tp166
s(I14
I6
tp167
Ns(I13
I6
tp168
Ns(I19
I2
tp169
Ns(I18
I6
tp170
(g9
g10
(I212
I144
I13
I255
tp171
Rp172
tp173
s(I0
I5
tp174
Ns(I15
I7
tp175
(g9
g10
(I251
I36
I182
I255
tp176
Rp177
tp178
s(I20
I5
tp179
(g9
g10
(I209
I241
I42
I255
tp180
Rp181
tp182
s(I1
I0
tp183
Ns(I0
I8
tp184
Ns(I3
I5
tp185
Ns(I2
I7
tp186
Ns(I8
I3
tp187
Ns(I4
I6
tp188
Ns(I9
I2
tp189
Ns(I6
I1
tp190
Ns(I5
I7
tp191
Ns(I11
I3
tp192
Ns(I7
I4
tp193
Ns(I12
I4
tp194
Ns(I15
I9
tp195
(g9
g10
(I25
I32
I199
I255
tp196
Rp197
tp198
s(I14
I3
tp199
Ns(I13
I9
tp200
(g9
g10
(I25
I32
I199
I255
tp201
Rp202
tp203
s(I19
I1
tp204
(g9
g10
(I23
I39
I242
I255
tp205
Rp206
tp207
s(I0
I2
tp208
Ns(I1
I3
tp209
Ns(I4
I8
tp210
Ns(I3
I0
tp211
Ns(I2
I8
tp212
Ns(I9
I8
tp213
Ns(I8
I0
tp214
Ns(I6
I2
tp215
Ns(I14
I9
tp216
(g9
g10
(I25
I32
I199
I255
tp217
Rp218
tp219
s(I12
I9
tp220
Ns(I18
I1
tp221
(g9
g10
(I25
I195
I66
I255
tp222
Rp223
tp224
s(I21
I1
tp225
(g9
g10
(I23
I39
I242
I255
tp226
Rp227
tp228
s(I5
I0
tp229
Ns(I10
I0
tp230
Ns(I12
I3
tp231
Ns(I17
I5
tp232
(g9
g10
(I232
I22
I23
I255
tp233
Rp234
tp235
s(I7
I6
tp236
Ns(I13
I2
tp237
Ns(I19
I6
tp238
(g9
g10
(I229
I22
I20
I255
tp239
Rp240
tp241
s(I18
I2
tp242
Ns(I15
I3
tp243
Ns(I20
I1
tp244
(g9
g10
(I23
I39
I242
I255
tp245
Rp246
tp247
s(I1
I4
tp248
Ns(I7
I7
tp249
Ns(I21
I4
tp250
(g9
g10
(I184
I238
I36
I255
tp251
Rp252
tp253
s(I3
I9
tp254
Ns(I2
I3
tp255
Ns(I1
I9
tp256
Ns(I8
I7
tp257
Ns(I4
I2
tp258
Ns(I9
I6
tp259
Ns(I6
I5
tp260
Ns(I5
I3
tp261
Ns(I11
I7
tp262
Ns(I10
I5
tp263
Ns(I16
I5
tp264
(g9
g10
(I232
I22
I23
I255
tp265
Rp266
tp267
s(I6
I8
tp268
Ns(I12
I0
tp269
Ns(I11
I8
tp270
Ns(I17
I0
tp271
(g9
g10
(I25
I195
I66
I255
tp272
Rp273
tp274
s(I16
I8
tp275
(g9
g10
(I251
I36
I182
I255
tp276
Rp277
tp278
s(I14
I7
tp279
Ns(I13
I5
tp280
Ns(I19
I5
tp281
(g9
g10
(I209
I241
I42
I255
tp282
Rp283
tp284
s(I18
I7
tp285
(g9
g10
(I229
I22
I20
I255
tp286
Rp287
tp288
s(I0
I6
tp289
Ns(I15
I6
tp290
(g9
g10
(I232
I22
I23
I255
tp291
Rp292
tp293
s(I20
I6
tp294
(g9
g10
(I229
I22
I20
I255
tp295
Rp296
tp297
s(I1
I7
tp298
Ns(I0
I9
tp299
Ns(I21
I7
tp300
(g9
g10
(I235
I25
I22
I255
tp301
Rp302
tp303
s(I3
I4
tp304
Ns(I2
I4
tp305
Ns(I8
I4
tp306
Ns(I5
I9
tp307
Ns(I4
I7
tp308
Ns(I9
I1
tp309
Ns(I6
I6
tp310
Ns(I5
I6
tp311
Ns(I11
I2
tp312
Ns(I10
I6
tp313
Ns(I16
I2
tp314
Ns(I12
I5
tp315
Ns(I17
I3
tp316
Ns(I15
I8
tp317
(g9
g10
(I251
I36
I182
I255
tp318
Rp319
tp320
s(I14
I0
tp321
Ns(I13
I8
tp322
Ns(I20
I8
tp323
(g9
g10
(I29
I33
I216
I255
tp324
Rp325
tp326
s(I19
I0
tp327
(g9
g10
(I23
I30
I248
I255
tp328
Rp329
tp330
s(I18
I8
tp331
(g9
g10
(I20
I158
I70
I255
tp332
Rp333
tp334
s(I0
I3
tp335
Ns(I15
I5
tp336
Ns(I1
I2
tp337
Ns(I16
I1
tp338
Ns(I4
I9
tp339
Ns(I3
I3
tp340
Ns(I2
I9
tp341
Ns(I8
I1
tp342
Ns(I4
I4
tp343
Ns(I6
I3
tp344
Ns(I11
I1
tp345
Ns(I16
I7
tp346
(g9
g10
(I20
I158
I70
I255
tp347
Rp348
tp349
s(I0
I0
tp350
Ns(I21
I0
tp351
(g9
g10
(I23
I30
I248
I255
tp352
Rp353
tp354
s(I10
I1
tp355
Ns(I17
I4
tp356
Ns(I7
I9
tp357
Ns(I13
I1
tp358
Ns(I19
I9
tp359
(g9
g10
(I25
I33
I224
I255
tp360
Rp361
tp362
s(I18
I3
tp363
Ns(I17
I9
tp364
(g9
g10
(I25
I33
I224
I255
tp365
Rp366
tp367
s(I15
I2
tp368
Ns(I20
I2
tp369
Ns(I21
I3
tp370
Ns(I3
I8
tp371
Ns(I2
I0
tp372
Ns(I1
I8
tp373
Ns(I16
I0
tp374
(g9
g10
(I25
I195
I66
I255
tp375
Rp376
tp377
s(I4
I3
tp378
Ns(I9
I5
tp379
Ns(I5
I2
tp380
Ns(I11
I6
tp381
Ns(I10
I2
tp382
NssS'time'
p383
F1390395156.38
s.(dp0
S'trigger'
p1
S'7'
p2
sS'matrix'
p3
(dp4
(I7
I3
tp5
Ns(I6
I9
tp6
Ns(I12
I1
tp7
Ns(I16
I6
tp8
(S'block'
p9
cpygame
__color_constructor
p10
(I232
I22
I23
I255
tp11
Rp12
tp13
s(I16
I9
tp14
(g9
g10
(I25
I32
I199
I255
tp15
Rp16
tp17
s(I14
I4
tp18
Ns(I13
I4
tp19
Ns(I19
I4
tp20
(g9
g10
(I209
I241
I42
I255
tp21
Rp22
tp23
s(I18
I4
tp24
(g9
g10
(I212
I144
I13
I255
tp25
Rp26
tp27
s(I0
I7
tp28
Ns(I15
I1
tp29
Ns(I21
I9
tp30
(g9
g10
(I9
I225
I210
I255
tp31
Rp32
tp33
s(I20
I7
tp34
(g9
g10
(I235
I25
I22
I255
tp35
Rp36
tp37
s(I1
I6
tp38
Ns(I21
I6
tp39
(g9
g10
(I235
I25
I22
I255
tp40
Rp41
tp42
s(I3
I7
tp43
Ns(I2
I5
tp44
Ns(I8
I5
tp45
Ns(I5
I8
tp46
Ns(I4
I0
tp47
Ns(I10
I8
tp48
Ns(I9
I0
tp49
Ns(I6
I7
tp50
Ns(I5
I5
tp51
Ns(I11
I5
tp52
Ns(I10
I7
tp53
Ns(I16
I3
tp54
Ns(I17
I7
tp55
(g9
g10
(I20
I158
I70
I255
tp56
Rp57
tp58
s(I12
I6
tp59
Ns(I17
I2
tp60
Ns(I14
I1
tp61
Ns(I13
I7
tp62
Ns(I20
I9
tp63
(g9
g10
(I25
I33
I224
I255
tp64
Rp65
tp66
s(I19
I3
tp67
Ns(I18
I9
tp68
(g9
g10
(I25
I33
I224
I255
tp69
Rp70
tp71
s(I0
I4
tp72
Ns(I15
I4
tp73
(g9
g10
(I10
I255
I200
I255
tp74
Rp75
tp76
s(I20
I4
tp77
(g9
g10
(I209
I241
I42
I255
tp78
Rp79
tp80
s(I1
I1
tp81
Ns(I3
I2
tp82
Ns(I2
I6
tp83
Ns(I8
I2
tp84
Ns(I4
I5
tp85
Ns(I9
I3
tp86
Ns(I6
I0
tp87
Ns(I11
I0
tp88
Ns(I7
I5
tp89
Ns(I16
I5
tp90
(g9
g10
(I232
I22
I23
I255
tp91
Rp92
tp93
s(I14
I2
tp94
Ns(I0
I1
tp95
Ns(I3
I1
tp96
Ns(I9
I9
tp97
Ns(I7
I8
tp98
Ns(I14
I8
tp99
(g9
g10
(I251
I36
I182
I255
tp100
Rp101
tp102
s(I13
I0
tp103
Ns(I12
I8
tp104
Ns(I19
I8
tp105
(g9
g10
(I29
I33
I216
I255
tp106
Rp107
tp108
s(I18
I0
tp109
(g9
g10
(I23
I30
I248
I255
tp110
Rp111
tp112
s(I17
I8
tp113
(g9
g10
(I20
I158
I70
I255
tp114
Rp115
tp116
s(I20
I3
tp117
Ns(I21
I2
tp118
Ns(I2
I1
tp119
Ns(I8
I9
tp120
Ns(I9
I4
tp121
Ns(I5
I1
tp122
Ns(I10
I3
tp123
Ns(I7
I2
tp124
Ns(I12
I2
tp125
Ns(I17
I6
tp126
(g9
g10
(I212
I144
I13
I255
tp127
Rp128
tp129
s(I14
I5
tp130
Ns(I13
I3
tp131
Ns(I19
I7
tp132
(g9
g10
(I229
I22
I20
I255
tp133
Rp134
tp135
s(I18
I5
tp136
(g9
g10
(I212
I144
I13
I255
tp137
Rp138
tp139
s(I16
I4
tp140
(g9
g10
(I10
I255
I200
I255
tp141
Rp142
tp143
s(I15
I0
tp144
Ns(I21
I8
tp145
(g9
g10
(I29
I33
I216
I255
tp146
Rp147
tp148
s(I20
I0
tp149
(g9
g10
(I23
I30
I248
I255
tp150
Rp151
tp152
s(I1
I5
tp153
Ns(I21
I5
tp154
(g9
g10
(I184
I238
I36
I255
tp155
Rp156
tp157
s(I3
I6
tp158
Ns(I2
I2
tp159
Ns(I8
I6
tp160
Ns(I4
I1
tp161
Ns(I10
I9
tp162
Ns(I9
I7
tp163
Ns(I6
I4
tp164
Ns(I5
I4
tp165
Ns(I11
I4
tp166
Ns(I10
I4
tp167
Ns(I7
I1
tp168
Ns(I12
I7
tp169
Ns(I11
I9
tp170
Ns(I17
I1
tp171
(g9
g10
(I25
I195
I66
I255
tp172
Rp173
tp174
s(I14
I6
tp175
Ns(I13
I6
tp176
Ns(I19
I2
tp177
Ns(I18
I6
tp178
(g9
g10
(I212
I144
I13
I255
tp179
Rp180
tp181
s(I0
I5
tp182
Ns(I15
I7
tp183
(g9
g10
(I251
I36
I182
I255
tp184
Rp185
tp186
s(I20
I5
tp187
(g9
g10
(I209
I241
I42
I255
tp188
Rp189
tp190
s(I1
I0
tp191
Ns(I0
I8
tp192
Ns(I3
I5
tp193
Ns(I2
I7
tp194
Ns(I8
I3
tp195
Ns(I4
I6
tp196
Ns(I9
I2
tp197
Ns(I6
I1
tp198
Ns(I5
I7
tp199
Ns(I11
I3
tp200
Ns(I7
I4
tp201
Ns(I12
I4
tp202
Ns(I15
I9
tp203
(g9
g10
(I25
I32
I199
I255
tp204
Rp205
tp206
s(I14
I3
tp207
Ns(I13
I9
tp208
(g9
g10
(I25
I32
I199
I255
tp209
Rp210
tp211
s(I19
I1
tp212
(g9
g10
(I23
I39
I242
I255
tp213
Rp214
tp215
s(I0
I2
tp216
Ns(I1
I3
tp217
Ns(I4
I8
tp218
Ns(I3
I0
tp219
Ns(I2
I8
tp220
Ns(I9
I8
tp221
Ns(I8
I0
tp222
Ns(I6
I2
tp223
Ns(I14
I9
tp224
(g9
g10
(I25
I32
I199
I255
tp225
Rp226
tp227
s(I12
I9
tp228
Ns(I18
I1
tp229
(g9
g10
(I25
I195
I66
I255
tp230
Rp231
tp232
s(I16
I0
tp233
(g9
g10
(I25
I195
I66
I255
tp234
Rp235
tp236
s(I21
I1
tp237
(g9
g10
(I23
I39
I242
I255
tp238
Rp239
tp240
s(I5
I0
tp241
Ns(I10
I0
tp242
Ns(I12
I3
tp243
Ns(I17
I5
tp244
(g9
g10
(I232
I22
I23
I255
tp245
Rp246
tp247
s(I7
I6
tp248
Ns(I13
I2
tp249
Ns(I19
I6
tp250
(g9
g10
(I229
I22
I20
I255
tp251
Rp252
tp253
s(I18
I2
tp254
Ns(I15
I3
tp255
Ns(I20
I1
tp256
(g9
g10
(I23
I39
I242
I255
tp257
Rp258
tp259
s(I1
I4
tp260
Ns(I16
I2
tp261
Ns(I21
I4
tp262
(g9
g10
(I184
I238
I36
I255
tp263
Rp264
tp265
s(I3
I9
tp266
Ns(I2
I3
tp267
Ns(I1
I9
tp268
Ns(I8
I7
tp269
Ns(I4
I2
tp270
Ns(I9
I6
tp271
Ns(I6
I5
tp272
Ns(I5
I3
tp273
Ns(I11
I7
tp274
Ns(I10
I5
tp275
Ns(I7
I0
tp276
Ns(I6
I8
tp277
Ns(I12
I0
tp278
Ns(I11
I8
tp279
Ns(I17
I0
tp280
(g9
g10
(I25
I195
I66
I255
tp281
Rp282
tp283
s(I16
I8
tp284
(g9
g10
(I251
I36
I182
I255
tp285
Rp286
tp287
s(I14
I7
tp288
Ns(I13
I5
tp289
Ns(I19
I5
tp290
(g9
g10
(I209
I241
I42
I255
tp291
Rp292
tp293
s(I18
I7
tp294
(g9
g10
(I229
I22
I20
I255
tp295
Rp296
tp297
s(I0
I6
tp298
Ns(I15
I6
tp299
(g9
g10
(I232
I22
I23
I255
tp300
Rp301
tp302
s(I20
I6
tp303
(g9
g10
(I229
I22
I20
I255
tp304
Rp305
tp306
s(I1
I7
tp307
Ns(I0
I9
tp308
Ns(I21
I7
tp309
(g9
g10
(I235
I25
I22
I255
tp310
Rp311
tp312
s(I3
I4
tp313
Ns(I2
I4
tp314
Ns(I8
I4
tp315
Ns(I5
I9
tp316
Ns(I4
I7
tp317
Ns(I9
I1
tp318
Ns(I6
I6
tp319
Ns(I5
I6
tp320
Ns(I11
I2
tp321
Ns(I10
I6
tp322
Ns(I7
I7
tp323
Ns(I12
I5
tp324
Ns(I17
I3
tp325
Ns(I15
I8
tp326
(g9
g10
(I251
I36
I182
I255
tp327
Rp328
tp329
s(I14
I0
tp330
Ns(I13
I8
tp331
Ns(I20
I8
tp332
(g9
g10
(I29
I33
I216
I255
tp333
Rp334
tp335
s(I19
I0
tp336
(g9
g10
(I23
I30
I248
I255
tp337
Rp338
tp339
s(I18
I8
tp340
(g9
g10
(I20
I158
I70
I255
tp341
Rp342
tp343
s(I0
I3
tp344
Ns(I15
I5
tp345
(g9
g10
(I10
I255
I200
I255
tp346
Rp347
tp348
s(I1
I2
tp349
Ns(I16
I1
tp350
Ns(I4
I9
tp351
Ns(I3
I3
tp352
Ns(I2
I9
tp353
Ns(I8
I1
tp354
Ns(I4
I4
tp355
Ns(I6
I3
tp356
Ns(I11
I1
tp357
Ns(I16
I7
tp358
(g9
g10
(I20
I158
I70
I255
tp359
Rp360
tp361
s(I0
I0
tp362
Ns(I21
I0
tp363
(g9
g10
(I23
I30
I248
I255
tp364
Rp365
tp366
s(I10
I1
tp367
Ns(I17
I4
tp368
(g9
g10
(I10
I255
I200
I255
tp369
Rp370
tp371
s(I7
I9
tp372
Ns(I13
I1
tp373
Ns(I19
I9
tp374
(g9
g10
(I25
I33
I224
I255
tp375
Rp376
tp377
s(I18
I3
tp378
Ns(I17
I9
tp379
(g9
g10
(I25
I33
I224
I255
tp380
Rp381
tp382
s(I15
I2
tp383
Ns(I20
I2
tp384
Ns(I21
I3
tp385
Ns(I3
I8
tp386
Ns(I2
I0
tp387
Ns(I1
I8
tp388
Ns(I8
I8
tp389
Ns(I4
I3
tp390
Ns(I9
I5
tp391
Ns(I5
I2
tp392
Ns(I11
I6
tp393
Ns(I10
I2
tp394
NssS'time'
p395
F1390395159.58
s.(dp0
S'trigger'
p1
S'7'
p2
sS'matrix'
p3
(dp4
(I7
I3
tp5
Ns(I6
I9
tp6
Ns(I12
I1
tp7
Ns(I16
I6
tp8
(S'block'
p9
cpygame
__color_constructor
p10
(I232
I22
I23
I255
tp11
Rp12
tp13
s(I16
I9
tp14
(g9
g10
(I25
I32
I199
I255
tp15
Rp16
tp17
s(I14
I4
tp18
Ns(I13
I4
tp19
Ns(I19
I4
tp20
(g9
g10
(I209
I241
I42
I255
tp21
Rp22
tp23
s(I18
I4
tp24
(g9
g10
(I212
I144
I13
I255
tp25
Rp26
tp27
s(I0
I7
tp28
Ns(I15
I1
tp29
Ns(I21
I9
tp30
(g9
g10
(I9
I225
I210
I255
tp31
Rp32
tp33
s(I20
I7
tp34
(g9
g10
(I235
I25
I22
I255
tp35
Rp36
tp37
s(I1
I6
tp38
Ns(I21
I6
tp39
(g9
g10
(I235
I25
I22
I255
tp40
Rp41
tp42
s(I3
I7
tp43
Ns(I2
I5
tp44
Ns(I8
I5
tp45
Ns(I5
I8
tp46
Ns(I4
I0
tp47
Ns(I10
I8
tp48
Ns(I9
I0
tp49
Ns(I6
I7
tp50
Ns(I5
I5
tp51
Ns(I11
I5
tp52
Ns(I10
I7
tp53
Ns(I16
I3
tp54
Ns(I17
I7
tp55
(g9
g10
(I20
I158
I70
I255
tp56
Rp57
tp58
s(I12
I6
tp59
Ns(I8
I8
tp60
Ns(I17
I2
tp61
Ns(I14
I1
tp62
Ns(I13
I7
tp63
Ns(I20
I9
tp64
(g9
g10
(I25
I33
I224
I255
tp65
Rp66
tp67
s(I19
I3
tp68
(g9
g10
(I195
I22
I25
I255
tp69
Rp70
tp71
s(I18
I9
tp72
(g9
g10
(I25
I33
I224
I255
tp73
Rp74
tp75
s(I0
I4
tp76
Ns(I15
I4
tp77
(g9
g10
(I10
I255
I200
I255
tp78
Rp79
tp80
s(I20
I4
tp81
(g9
g10
(I209
I241
I42
I255
tp82
Rp83
tp84
s(I1
I1
tp85
Ns(I3
I2
tp86
Ns(I2
I6
tp87
Ns(I8
I2
tp88
Ns(I4
I5
tp89
Ns(I9
I3
tp90
Ns(I6
I0
tp91
Ns(I11
I0
tp92
Ns(I7
I5
tp93
Ns(I7
I0
tp94
Ns(I14
I2
tp95
Ns(I0
I1
tp96
Ns(I3
I1
tp97
Ns(I9
I9
tp98
Ns(I7
I8
tp99
Ns(I14
I8
tp100
(g9
g10
(I251
I36
I182
I255
tp101
Rp102
tp103
s(I13
I0
tp104
Ns(I12
I8
tp105
Ns(I19
I8
tp106
(g9
g10
(I29
I33
I216
I255
tp107
Rp108
tp109
s(I18
I0
tp110
(g9
g10
(I23
I30
I248
I255
tp111
Rp112
tp113
s(I17
I8
tp114
(g9
g10
(I20
I158
I70
I255
tp115
Rp116
tp117
s(I20
I3
tp118
(g9
g10
(I195
I22
I25
I255
tp119
Rp120
tp121
s(I21
I2
tp122
(g9
g10
(I195
I22
I25
I255
tp123
Rp124
tp125
s(I2
I1
tp126
Ns(I8
I9
tp127
Ns(I9
I4
tp128
Ns(I5
I1
tp129
Ns(I10
I3
tp130
Ns(I7
I2
tp131
Ns(I12
I2
tp132
Ns(I17
I6
tp133
(g9
g10
(I212
I144
I13
I255
tp134
Rp135
tp136
s(I14
I5
tp137
Ns(I13
I3
tp138
Ns(I19
I7
tp139
(g9
g10
(I229
I22
I20
I255
tp140
Rp141
tp142
s(I18
I5
tp143
(g9
g10
(I212
I144
I13
I255
tp144
Rp145
tp146
s(I7
I1
tp147
Ns(I15
I0
tp148
Ns(I21
I8
tp149
(g9
g10
(I29
I33
I216
I255
tp150
Rp151
tp152
s(I20
I0
tp153
(g9
g10
(I23
I30
I248
I255
tp154
Rp155
tp156
s(I1
I5
tp157
Ns(I21
I5
tp158
(g9
g10
(I184
I238
I36
I255
tp159
Rp160
tp161
s(I3
I6
tp162
Ns(I2
I2
tp163
Ns(I8
I6
tp164
Ns(I4
I1
tp165
Ns(I10
I9
tp166
Ns(I9
I7
tp167
Ns(I6
I4
tp168
Ns(I5
I4
tp169
Ns(I11
I4
tp170
Ns(I10
I4
tp171
Ns(I16
I4
tp172
(g9
g10
(I10
I255
I200
I255
tp173
Rp174
tp175
s(I12
I7
tp176
Ns(I11
I9
tp177
Ns(I17
I1
tp178
(g9
g10
(I25
I195
I66
I255
tp179
Rp180
tp181
s(I14
I6
tp182
Ns(I13
I6
tp183
Ns(I19
I2
tp184
Ns(I18
I6
tp185
(g9
g10
(I212
I144
I13
I255
tp186
Rp187
tp188
s(I0
I5
tp189
Ns(I15
I7
tp190
(g9
g10
(I251
I36
I182
I255
tp191
Rp192
tp193
s(I20
I5
tp194
(g9
g10
(I209
I241
I42
I255
tp195
Rp196
tp197
s(I1
I0
tp198
Ns(I0
I8
tp199
Ns(I3
I5
tp200
Ns(I2
I7
tp201
Ns(I8
I3
tp202
Ns(I4
I6
tp203
Ns(I9
I2
tp204
Ns(I6
I1
tp205
Ns(I5
I7
tp206
Ns(I11
I3
tp207
Ns(I7
I4
tp208
Ns(I12
I4
tp209
Ns(I15
I9
tp210
(g9
g10
(I25
I32
I199
I255
tp211
Rp212
tp213
s(I14
I3
tp214
Ns(I13
I9
tp215
(g9
g10
(I25
I32
I199
I255
tp216
Rp217
tp218
s(I19
I1
tp219
(g9
g10
(I23
I39
I242
I255
tp220
Rp221
tp222
s(I0
I2
tp223
Ns(I1
I3
tp224
Ns(I4
I8
tp225
Ns(I3
I0
tp226
Ns(I2
I8
tp227
Ns(I9
I8
tp228
Ns(I8
I0
tp229
Ns(I6
I2
tp230
Ns(I14
I9
tp231
(g9
g10
(I25
I32
I199
I255
tp232
Rp233
tp234
s(I12
I9
tp235
Ns(I18
I1
tp236
(g9
g10
(I25
I195
I66
I255
tp237
Rp238
tp239
s(I21
I1
tp240
(g9
g10
(I23
I39
I242
I255
tp241
Rp242
tp243
s(I5
I0
tp244
Ns(I10
I0
tp245
Ns(I12
I3
tp246
Ns(I17
I5
tp247
(g9
g10
(I232
I22
I23
I255
tp248
Rp249
tp250
s(I7
I6
tp251
Ns(I13
I2
tp252
Ns(I19
I6
tp253
(g9
g10
(I229
I22
I20
I255
tp254
Rp255
tp256
s(I18
I2
tp257
Ns(I15
I3
tp258
Ns(I20
I1
tp259
(g9
g10
(I23
I39
I242
I255
tp260
Rp261
tp262
s(I1
I4
tp263
Ns(I7
I7
tp264
Ns(I21
I4
tp265
(g9
g10
(I184
I238
I36
I255
tp266
Rp267
tp268
s(I3
I9
tp269
Ns(I2
I3
tp270
Ns(I1
I9
tp271
Ns(I8
I7
tp272
Ns(I4
I2
tp273
Ns(I9
I6
tp274
Ns(I6
I5
tp275
Ns(I5
I3
tp276
Ns(I11
I7
tp277
Ns(I10
I5
tp278
Ns(I16
I5
tp279
(g9
g10
(I232
I22
I23
I255
tp280
Rp281
tp282
s(I6
I8
tp283
Ns(I12
I0
tp284
Ns(I11
I8
tp285
Ns(I17
I0
tp286
(g9
g10
(I25
I195
I66
I255
tp287
Rp288
tp289
s(I16
I8
tp290
(g9
g10
(I251
I36
I182
I255
tp291
Rp292
tp293
s(I14
I7
tp294
Ns(I13
I5
tp295
Ns(I19
I5
tp296
(g9
g10
(I209
I241
I42
I255
tp297
Rp298
tp299
s(I18
I7
tp300
(g9
g10
(I229
I22
I20
I255
tp301
Rp302
tp303
s(I0
I6
tp304
Ns(I15
I6
tp305
(g9
g10
(I232
I22
I23
I255
tp306
Rp307
tp308
s(I20
I6
tp309
(g9
g10
(I229
I22
I20
I255
tp310
Rp311
tp312
s(I1
I7
tp313
Ns(I0
I9
tp314
Ns(I21
I7
tp315
(g9
g10
(I235
I25
I22
I255
tp316
Rp317
tp318
s(I3
I4
tp319
Ns(I2
I4
tp320
Ns(I8
I4
tp321
Ns(I5
I9
tp322
Ns(I4
I7
tp323
Ns(I9
I1
tp324
Ns(I6
I6
tp325
Ns(I5
I6
tp326
Ns(I11
I2
tp327
Ns(I10
I6
tp328
Ns(I16
I2
tp329
Ns(I12
I5
tp330
Ns(I17
I3
tp331
Ns(I15
I8
tp332
(g9
g10
(I251
I36
I182
I255
tp333
Rp334
tp335
s(I14
I0
tp336
Ns(I13
I8
tp337
Ns(I20
I8
tp338
(g9
g10
(I29
I33
I216
I255
tp339
Rp340
tp341
s(I19
I0
tp342
(g9
g10
(I23
I30
I248
I255
tp343
Rp344
tp345
s(I18
I8
tp346
(g9
g10
(I20
I158
I70
I255
tp347
Rp348
tp349
s(I0
I3
tp350
Ns(I15
I5
tp351
(g9
g10
(I10
I255
I200
I255
tp352
Rp353
tp354
s(I1
I2
tp355
Ns(I16
I1
tp356
Ns(I4
I9
tp357
Ns(I3
I3
tp358
Ns(I2
I9
tp359
Ns(I8
I1
tp360
Ns(I4
I4
tp361
Ns(I6
I3
tp362
Ns(I11
I1
tp363
Ns(I16
I7
tp364
(g9
g10
(I20
I158
I70
I255
tp365
Rp366
tp367
s(I0
I0
tp368
Ns(I21
I0
tp369
(g9
g10
(I23
I30
I248
I255
tp370
Rp371
tp372
s(I10
I1
tp373
Ns(I17
I4
tp374
(g9
g10
(I10
I255
I200
I255
tp375
Rp376
tp377
s(I7
I9
tp378
Ns(I13
I1
tp379
Ns(I19
I9
tp380
(g9
g10
(I25
I33
I224
I255
tp381
Rp382
tp383
s(I18
I3
tp384
Ns(I17
I9
tp385
(g9
g10
(I25
I33
I224
I255
tp386
Rp387
tp388
s(I15
I2
tp389
Ns(I20
I2
tp390
(g9
g10
(I195
I22
I25
I255
tp391
Rp392
tp393
s(I21
I3
tp394
Ns(I3
I8
tp395
Ns(I2
I0
tp396
Ns(I1
I8
tp397
Ns(I16
I0
tp398
(g9
g10
(I25
I195
I66
I255
tp399
Rp400
tp401
s(I4
I3
tp402
Ns(I9
I5
tp403
Ns(I5
I2
tp404
Ns(I11
I6
tp405
Ns(I10
I2
tp406
NssS'time'
p407
F1390395163.585
s.(dp0
S'trigger'
p1
S'0'
p2
sS'matrix'
p3
(dp4
(I7
I3
tp5
Ns(I6
I9
tp6
Ns(I12
I1
tp7
Ns(I16
I6
tp8
(S'block'
p9
cpygame
__color_constructor
p10
(I232
I22
I23
I255
tp11
Rp12
tp13
s(I16
I9
tp14
(g9
g10
(I25
I32
I199
I255
tp15
Rp16
tp17
s(I14
I4
tp18
Ns(I13
I4
tp19
Ns(I19
I4
tp20
(g9
g10
(I212
I144
I13
I255
tp21
Rp22
tp23
s(I18
I4
tp24
(g9
g10
(I10
I255
I200
I255
tp25
Rp26
tp27
s(I0
I7
tp28
Ns(I15
I1
tp29
Ns(I21
I9
tp30
(g9
g10
(I9
I225
I210
I255
tp31
Rp32
tp33
s(I20
I7
tp34
(g9
g10
(I229
I22
I20
I255
tp35
Rp36
tp37
s(I1
I6
tp38
Ns(I21
I6
tp39
(g9
g10
(I235
I25
I22
I255
tp40
Rp41
tp42
s(I3
I7
tp43
Ns(I2
I5
tp44
Ns(I8
I5
tp45
Ns(I5
I8
tp46
Ns(I4
I0
tp47
Ns(I10
I8
tp48
Ns(I9
I0
tp49
Ns(I6
I7
tp50
Ns(I5
I5
tp51
Ns(I11
I5
tp52
Ns(I10
I7
tp53
Ns(I16
I3
tp54
Ns(I17
I7
tp55
(g9
g10
(I20
I158
I70
I255
tp56
Rp57
tp58
s(I12
I6
tp59
Ns(I8
I8
tp60
Ns(I17
I2
tp61
Ns(I14
I1
tp62
Ns(I13
I7
tp63
Ns(I20
I9
tp64
(g9
g10
(I25
I33
I224
I255
tp65
Rp66
tp67
s(I19
I3
tp68
Ns(I18
I9
tp69
(g9
g10
(I25
I33
I224
I255
tp70
Rp71
tp72
s(I0
I4
tp73
Ns(I15
I4
tp74
Ns(I20
I4
tp75
(g9
g10
(I209
I241
I42
I255
tp76
Rp77
tp78
s(I1
I1
tp79
Ns(I3
I2
tp80
Ns(I2
I6
tp81
Ns(I8
I2
tp82
Ns(I4
I5
tp83
Ns(I9
I3
tp84
Ns(I6
I0
tp85
Ns(I11
I0
tp86
Ns(I7
I5
tp87
Ns(I7
I0
tp88
Ns(I14
I2
tp89
Ns(I0
I1
tp90
Ns(I3
I1
tp91
Ns(I9
I9
tp92
Ns(I7
I8
tp93
Ns(I14
I8
tp94
Ns(I13
I0
tp95
Ns(I12
I8
tp96
Ns(I19
I8
tp97
(g9
g10
(I20
I158
I70
I255
tp98
Rp99
tp100
s(I18
I0
tp101
(g9
g10
(I25
I195
I66
I255
tp102
Rp103
tp104
s(I17
I8
tp105
(g9
g10
(I251
I36
I182
I255
tp106
Rp107
tp108
s(I20
I3
tp109
(g9
g10
(I195
I22
I25
I255
tp110
Rp111
tp112
s(I21
I2
tp113
(g9
g10
(I195
I22
I25
I255
tp114
Rp115
tp116
s(I2
I1
tp117
Ns(I8
I9
tp118
Ns(I9
I4
tp119
Ns(I5
I1
tp120
Ns(I10
I3
tp121
Ns(I7
I2
tp122
Ns(I12
I2
tp123
Ns(I17
I6
tp124
(g9
g10
(I232
I22
I23
I255
tp125
Rp126
tp127
s(I14
I5
tp128
Ns(I13
I3
tp129
Ns(I19
I7
tp130
(g9
g10
(I229
I22
I20
I255
tp131
Rp132
tp133
s(I18
I5
tp134
(g9
g10
(I232
I22
I23
I255
tp135
Rp136
tp137
s(I7
I1
tp138
Ns(I15
I0
tp139
Ns(I21
I8
tp140
(g9
g10
(I29
I33
I216
I255
tp141
Rp142
tp143
s(I20
I0
tp144
(g9
g10
(I23
I30
I248
I255
tp145
Rp146
tp147
s(I1
I5
tp148
Ns(I21
I5
tp149
(g9
g10
(I184
I238
I36
I255
tp150
Rp151
tp152
s(I3
I6
tp153
Ns(I2
I2
tp154
Ns(I8
I6
tp155
Ns(I4
I1
tp156
Ns(I10
I9
tp157
Ns(I9
I7
tp158
Ns(I6
I4
tp159
Ns(I5
I4
tp160
Ns(I11
I4
tp161
Ns(I10
I4
tp162
Ns(I16
I4
tp163
(g9
g10
(I10
I255
I200
I255
tp164
Rp165
tp166
s(I12
I7
tp167
Ns(I11
I9
tp168
Ns(I17
I1
tp169
Ns(I14
I6
tp170
Ns(I13
I6
tp171
Ns(I19
I2
tp172
Ns(I18
I6
tp173
(g9
g10
(I212
I144
I13
I255
tp174
Rp175
tp176
s(I0
I5
tp177
Ns(I15
I7
tp178
Ns(I20
I5
tp179
(g9
g10
(I209
I241
I42
I255
tp180
Rp181
tp182
s(I1
I0
tp183
Ns(I0
I8
tp184
Ns(I3
I5
tp185
Ns(I2
I7
tp186
Ns(I8
I3
tp187
Ns(I4
I6
tp188
Ns(I9
I2
tp189
Ns(I6
I1
tp190
Ns(I5
I7
tp191
Ns(I11
I3
tp192
Ns(I7
I4
tp193
Ns(I12
I4
tp194
Ns(I15
I9
tp195
(g9
g10
(I25
I32
I199
I255
tp196
Rp197
tp198
s(I14
I3
tp199
Ns(I13
I9
tp200
Ns(I19
I1
tp201
(g9
g10
(I25
I195
I66
I255
tp202
Rp203
tp204
s(I0
I2
tp205
Ns(I1
I3
tp206
Ns(I4
I8
tp207
Ns(I3
I0
tp208
Ns(I2
I8
tp209
Ns(I9
I8
tp210
Ns(I8
I0
tp211
Ns(I6
I2
tp212
Ns(I14
I9
tp213
(g9
g10
(I25
I32
I199
I255
tp214
Rp215
tp216
s(I12
I9
tp217
Ns(I18
I1
tp218
(g9
g10
(I25
I195
I66
I255
tp219
Rp220
tp221
s(I21
I1
tp222
(g9
g10
(I23
I39
I242
I255
tp223
Rp224
tp225
s(I5
I0
tp226
Ns(I10
I0
tp227
Ns(I12
I3
tp228
Ns(I17
I5
tp229
(g9
g10
(I232
I22
I23
I255
tp230
Rp231
tp232
s(I7
I6
tp233
Ns(I13
I2
tp234
Ns(I19
I6
tp235
(g9
g10
(I212
I144
I13
I255
tp236
Rp237
tp238
s(I18
I2
tp239
Ns(I15
I3
tp240
Ns(I20
I1
tp241
(g9
g10
(I23
I39
I242
I255
tp242
Rp243
tp244
s(I1
I4
tp245
Ns(I7
I7
tp246
Ns(I21
I4
tp247
(g9
g10
(I184
I238
I36
I255
tp248
Rp249
tp250
s(I3
I9
tp251
Ns(I2
I3
tp252
Ns(I1
I9
tp253
Ns(I8
I7
tp254
Ns(I4
I2
tp255
Ns(I9
I6
tp256
Ns(I6
I5
tp257
Ns(I5
I3
tp258
Ns(I11
I7
tp259
Ns(I10
I5
tp260
Ns(I16
I5
tp261
(g9
g10
(I10
I255
I200
I255
tp262
Rp263
tp264
s(I6
I8
tp265
Ns(I12
I0
tp266
Ns(I11
I8
tp267
Ns(I17
I0
tp268
(g9
g10
(I25
I195
I66
I255
tp269
Rp270
tp271
s(I16
I8
tp272
(g9
g10
(I251
I36
I182
I255
tp273
Rp274
tp275
s(I14
I7
tp276
Ns(I13
I5
tp277
Ns(I19
I5
tp278
(g9
g10
(I212
I144
I13
I255
tp279
Rp280
tp281
s(I18
I7
tp282
(g9
g10
(I20
I158
I70
I255
tp283
Rp284
tp285
s(I0
I6
tp286
Ns(I15
I6
tp287
Ns(I20
I6
tp288
(g9
g10
(I229
I22
I20
I255
tp289
Rp290
tp291
s(I1
I7
tp292
Ns(I0
I9
tp293
Ns(I21
I7
tp294
(g9
g10
(I235
I25
I22
I255
tp295
Rp296
tp297
s(I3
I4
tp298
Ns(I2
I4
tp299
Ns(I8
I4
tp300
Ns(I5
I9
tp301
Ns(I4
I7
tp302
Ns(I9
I1
tp303
Ns(I6
I6
tp304
Ns(I5
I6
tp305
Ns(I11
I2
tp306
Ns(I10
I6
tp307
Ns(I16
I2
tp308
Ns(I12
I5
tp309
Ns(I17
I3
tp310
Ns(I15
I8
tp311
(g9
g10
(I251
I36
I182
I255
tp312
Rp313
tp314
s(I14
I0
tp315
Ns(I13
I8
tp316
Ns(I20
I8
tp317
(g9
g10
(I29
I33
I216
I255
tp318
Rp319
tp320
s(I19
I0
tp321
(g9
g10
(I23
I30
I248
I255
tp322
Rp323
tp324
s(I18
I8
tp325
(g9
g10
(I20
I158
I70
I255
tp326
Rp327
tp328
s(I0
I3
tp329
Ns(I15
I5
tp330
Ns(I1
I2
tp331
Ns(I16
I1
tp332
Ns(I4
I9
tp333
Ns(I3
I3
tp334
Ns(I2
I9
tp335
Ns(I8
I1
tp336
Ns(I4
I4
tp337
Ns(I6
I3
tp338
Ns(I11
I1
tp339
Ns(I16
I7
tp340
(g9
g10
(I251
I36
I182
I255
tp341
Rp342
tp343
s(I0
I0
tp344
Ns(I21
I0
tp345
(g9
g10
(I23
I30
I248
I255
tp346
Rp347
tp348
s(I10
I1
tp349
Ns(I17
I4
tp350
(g9
g10
(I10
I255
I200
I255
tp351
Rp352
tp353
s(I7
I9
tp354
Ns(I13
I1
tp355
Ns(I19
I9
tp356
(g9
g10
(I25
I33
I224
I255
tp357
Rp358
tp359
s(I18
I3
tp360
Ns(I17
I9
tp361
(g9
g10
(I25
I32
I199
I255
tp362
Rp363
tp364
s(I15
I2
tp365
Ns(I20
I2
tp366
Ns(I21
I3
tp367
Ns(I3
I8
tp368
Ns(I2
I0
tp369
Ns(I1
I8
tp370
Ns(I16
I0
tp371
Ns(I4
I3
tp372
Ns(I9
I5
tp373
Ns(I5
I2
tp374
Ns(I11
I6
tp375
Ns(I10
I2
tp376
NssS'time'
p377
F1390395163.608
s.(dp0
S'trigger'
p1
S'7'
p2
sS'matrix'
p3
(dp4
(I7
I3
tp5
Ns(I6
I9
tp6
Ns(I12
I1
tp7
Ns(I16
I6
tp8
(S'block'
p9
cpygame
__color_constructor
p10
(I232
I22
I23
I255
tp11
Rp12
tp13
s(I16
I9
tp14
(g9
g10
(I25
I32
I199
I255
tp15
Rp16
tp17
s(I14
I4
tp18
Ns(I13
I4
tp19
Ns(I19
I4
tp20
(g9
g10
(I212
I144
I13
I255
tp21
Rp22
tp23
s(I18
I4
tp24
(g9
g10
(I10
I255
I200
I255
tp25
Rp26
tp27
s(I0
I7
tp28
Ns(I15
I1
tp29
Ns(I21
I9
tp30
(g9
g10
(I9
I225
I210
I255
tp31
Rp32
tp33
s(I20
I7
tp34
(g9
g10
(I229
I22
I20
I255
tp35
Rp36
tp37
s(I1
I6
tp38
Ns(I21
I6
tp39
(g9
g10
(I235
I25
I22
I255
tp40
Rp41
tp42
s(I3
I7
tp43
Ns(I2
I5
tp44
Ns(I8
I5
tp45
Ns(I5
I8
tp46
Ns(I4
I0
tp47
Ns(I10
I8
tp48
Ns(I9
I0
tp49
Ns(I6
I7
tp50
Ns(I5
I5
tp51
Ns(I11
I5
tp52
Ns(I10
I7
tp53
Ns(I16
I3
tp54
Ns(I17
I7
tp55
(g9
g10
(I20
I158
I70
I255
tp56
Rp57
tp58
s(I12
I6
tp59
Ns(I17
I2
tp60
Ns(I14
I1
tp61
Ns(I13
I7
tp62
Ns(I20
I9
tp63
(g9
g10
(I25
I33
I224
I255
tp64
Rp65
tp66
s(I19
I3
tp67
(g9
g10
(I198
I43
I215
I255
tp68
Rp69
tp70
s(I18
I9
tp71
(g9
g10
(I25
I33
I224
I255
tp72
Rp73
tp74
s(I0
I4
tp75
Ns(I15
I4
tp76
Ns(I20
I4
tp77
(g9
g10
(I209
I241
I42
I255
tp78
Rp79
tp80
s(I1
I1
tp81
Ns(I3
I2
tp82
Ns(I2
I6
tp83
Ns(I8
I2
tp84
Ns(I4
I5
tp85
Ns(I9
I3
tp86
Ns(I6
I0
tp87
Ns(I11
I0
tp88
Ns(I7
I5
tp89
Ns(I16
I5
tp90
(g9
g10
(I10
I255
I200
I255
tp91
Rp92
tp93
s(I14
I2
tp94
Ns(I0
I1
tp95
Ns(I3
I1
tp96
Ns(I9
I9
tp97
Ns(I7
I8
tp98
Ns(I14
I8
tp99
Ns(I13
I0
tp100
Ns(I12
I8
tp101
Ns(I19
I8
tp102
(g9
g10
(I20
I158
I70
I255
tp103
Rp104
tp105
s(I18
I0
tp106
(g9
g10
(I25
I195
I66
I255
tp107
Rp108
tp109
s(I17
I8
tp110
(g9
g10
(I251
I36
I182
I255
tp111
Rp112
tp113
s(I20
I3
tp114
(g9
g10
(I195
I22
I25
I255
tp115
Rp116
tp117
s(I21
I2
tp118
(g9
g10
(I195
I22
I25
I255
tp119
Rp120
tp121
s(I2
I1
tp122
Ns(I8
I9
tp123
Ns(I9
I4
tp124
Ns(I5
I1
tp125
Ns(I10
I3
tp126
Ns(I7
I2
tp127
Ns(I12
I2
tp128
Ns(I17
I6
tp129
(g9
g10
(I232
I22
I23
I255
tp130
Rp131
tp132
s(I14
I5
tp133
Ns(I13
I3
tp134
Ns(I19
I7
tp135
(g9
g10
(I229
I22
I20
I255
tp136
Rp137
tp138
s(I18
I5
tp139
(g9
g10
(I232
I22
I23
I255
tp140
Rp141
tp142
s(I16
I4
tp143
(g9
g10
(I10
I255
I200
I255
tp144
Rp145
tp146
s(I15
I0
tp147
Ns(I21
I8
tp148
(g9
g10
(I29
I33
I216
I255
tp149
Rp150
tp151
s(I20
I0
tp152
(g9
g10
(I23
I30
I248
I255
tp153
Rp154
tp155
s(I1
I5
tp156
Ns(I21
I5
tp157
(g9
g10
(I184
I238
I36
I255
tp158
Rp159
tp160
s(I3
I6
tp161
Ns(I2
I2
tp162
Ns(I8
I6
tp163
Ns(I4
I1
tp164
Ns(I10
I9
tp165
Ns(I9
I7
tp166
Ns(I6
I4
tp167
Ns(I5
I4
tp168
Ns(I11
I4
tp169
Ns(I10
I4
tp170
Ns(I7
I1
tp171
Ns(I12
I7
tp172
Ns(I11
I9
tp173
Ns(I17
I1
tp174
Ns(I14
I6
tp175
Ns(I13
I6
tp176
Ns(I19
I2
tp177
Ns(I18
I6
tp178
(g9
g10
(I212
I144
I13
I255
tp179
Rp180
tp181
s(I0
I5
tp182
Ns(I15
I7
tp183
Ns(I20
I5
tp184
(g9
g10
(I209
I241
I42
I255
tp185
Rp186
tp187
s(I1
I0
tp188
Ns(I0
I8
tp189
Ns(I3
I5
tp190
Ns(I2
I7
tp191
Ns(I8
I3
tp192
Ns(I4
I6
tp193
Ns(I9
I2
tp194
Ns(I6
I1
tp195
Ns(I5
I7
tp196
Ns(I11
I3
tp197
Ns(I7
I4
tp198
Ns(I12
I4
tp199
Ns(I15
I9
tp200
(g9
g10
(I25
I32
I199
I255
tp201
Rp202
tp203
s(I14
I3
tp204
Ns(I13
I9
tp205
Ns(I19
I1
tp206
(g9
g10
(I25
I195
I66
I255
tp207
Rp208
tp209
s(I0
I2
tp210
Ns(I1
I3
tp211
Ns(I4
I8
tp212
Ns(I3
I0
tp213
Ns(I2
I8
tp214
Ns(I9
I8
tp215
Ns(I8
I0
tp216
Ns(I6
I2
tp217
Ns(I14
I9
tp218
(g9
g10
(I25
I32
I199
I255
tp219
Rp220
tp221
s(I12
I9
tp222
Ns(I18
I1
tp223
(g9
g10
(I25
I195
I66
I255
tp224
Rp225
tp226
s(I16
I0
tp227
Ns(I21
I1
tp228
(g9
g10
(I23
I39
I242
I255
tp229
Rp230
tp231
s(I5
I0
tp232
Ns(I10
I0
tp233
Ns(I12
I3
tp234
Ns(I17
I5
tp235
(g9
g10
(I232
I22
I23
I255
tp236
Rp237
tp238
s(I7
I6
tp239
Ns(I13
I2
tp240
Ns(I19
I6
tp241
(g9
g10
(I212
I144
I13
I255
tp242
Rp243
tp244
s(I18
I2
tp245
(g9
g10
(I198
I43
I215
I255
tp246
Rp247
tp248
s(I15
I3
tp249
Ns(I20
I1
tp250
(g9
g10
(I23
I39
I242
I255
tp251
Rp252
tp253
s(I1
I4
tp254
Ns(I16
I2
tp255
Ns(I21
I4
tp256
(g9
g10
(I184
I238
I36
I255
tp257
Rp258
tp259
s(I3
I9
tp260
Ns(I2
I3
tp261
Ns(I1
I9
tp262
Ns(I8
I7
tp263
Ns(I4
I2
tp264
Ns(I9
I6
tp265
Ns(I6
I5
tp266
Ns(I5
I3
tp267
Ns(I11
I7
tp268
Ns(I10
I5
tp269
Ns(I7
I0
tp270
Ns(I6
I8
tp271
Ns(I12
I0
tp272
Ns(I11
I8
tp273
Ns(I17
I0
tp274
(g9
g10
(I25
I195
I66
I255
tp275
Rp276
tp277
s(I16
I8
tp278
(g9
g10
(I251
I36
I182
I255
tp279
Rp280
tp281
s(I14
I7
tp282
Ns(I13
I5
tp283
Ns(I19
I5
tp284
(g9
g10
(I212
I144
I13
I255
tp285
Rp286
tp287
s(I18
I7
tp288
(g9
g10
(I20
I158
I70
I255
tp289
Rp290
tp291
s(I0
I6
tp292
Ns(I15
I6
tp293
Ns(I20
I6
tp294
(g9
g10
(I229
I22
I20
I255
tp295
Rp296
tp297
s(I1
I7
tp298
Ns(I0
I9
tp299
Ns(I21
I7
tp300
(g9
g10
(I235
I25
I22
I255
tp301
Rp302
tp303
s(I3
I4
tp304
Ns(I2
I4
tp305
Ns(I8
I4
tp306
Ns(I5
I9
tp307
Ns(I4
I7
tp308
Ns(I9
I1
tp309
Ns(I6
I6
tp310
Ns(I5
I6
tp311
Ns(I11
I2
tp312
Ns(I10
I6
tp313
Ns(I7
I7
tp314
Ns(I12
I5
tp315
Ns(I17
I3
tp316
(g9
g10
(I198
I43
I215
I255
tp317
Rp318
tp319
s(I15
I8
tp320
(g9
g10
(I251
I36
I182
I255
tp321
Rp322
tp323
s(I14
I0
tp324
Ns(I13
I8
tp325
Ns(I20
I8
tp326
(g9
g10
(I29
I33
I216
I255
tp327
Rp328
tp329
s(I19
I0
tp330
(g9
g10
(I23
I30
I248
I255
tp331
Rp332
tp333
s(I18
I8
tp334
(g9
g10
(I20
I158
I70
I255
tp335
Rp336
tp337
s(I0
I3
tp338
Ns(I15
I5
tp339
Ns(I1
I2
tp340
Ns(I16
I1
tp341
Ns(I4
I9
tp342
Ns(I3
I3
tp343
Ns(I2
I9
tp344
Ns(I8
I1
tp345
Ns(I4
I4
tp346
Ns(I6
I3
tp347
Ns(I11
I1
tp348
Ns(I16
I7
tp349
(g9
g10
(I251
I36
I182
I255
tp350
Rp351
tp352
s(I0
I0
tp353
Ns(I21
I0
tp354
(g9
g10
(I23
I30
I248
I255
tp355
Rp356
tp357
s(I10
I1
tp358
Ns(I17
I4
tp359
(g9
g10
(I10
I255
I200
I255
tp360
Rp361
tp362
s(I7
I9
tp363
Ns(I13
I1
tp364
Ns(I19
I9
tp365
(g9
g10
(I25
I33
I224
I255
tp366
Rp367
tp368
s(I18
I3
tp369
(g9
g10
(I198
I43
I215
I255
tp370
Rp371
tp372
s(I17
I9
tp373
(g9
g10
(I25
I32
I199
I255
tp374
Rp375
tp376
s(I15
I2
tp377
Ns(I20
I2
tp378
Ns(I21
I3
tp379
Ns(I3
I8
tp380
Ns(I2
I0
tp381
Ns(I1
I8
tp382
Ns(I8
I8
tp383
Ns(I4
I3
tp384
Ns(I9
I5
tp385
Ns(I5
I2
tp386
Ns(I11
I6
tp387
Ns(I10
I2
tp388
NssS'time'
p389
F1390395167.177
s.(dp0
S'trigger'
p1
S'0'
p2
sS'matrix'
p3
(dp4
(I7
I3
tp5
Ns(I6
I9
tp6
Ns(I12
I1
tp7
Ns(I16
I6
tp8
Ns(I16
I9
tp9
(S'block'
p10
cpygame
__color_constructor
p11
(I25
I32
I199
I255
tp12
Rp13
tp14
s(I14
I4
tp15
Ns(I13
I4
tp16
Ns(I19
I4
tp17
(g10
g11
(I212
I144
I13
I255
tp18
Rp19
tp20
s(I18
I4
tp21
(g10
g11
(I10
I255
I200
I255
tp22
Rp23
tp24
s(I0
I7
tp25
Ns(I15
I1
tp26
Ns(I21
I9
tp27
(g10
g11
(I9
I225
I210
I255
tp28
Rp29
tp30
s(I20
I7
tp31
(g10
g11
(I229
I22
I20
I255
tp32
Rp33
tp34
s(I1
I6
tp35
Ns(I21
I6
tp36
(g10
g11
(I235
I25
I22
I255
tp37
Rp38
tp39
s(I3
I7
tp40
Ns(I2
I5
tp41
Ns(I8
I5
tp42
Ns(I5
I8
tp43
Ns(I4
I0
tp44
Ns(I10
I8
tp45
Ns(I9
I0
tp46
Ns(I6
I7
tp47
Ns(I5
I5
tp48
Ns(I11
I5
tp49
Ns(I10
I7
tp50
Ns(I16
I3
tp51
Ns(I17
I7
tp52
(g10
g11
(I251
I36
I182
I255
tp53
Rp54
tp55
s(I12
I6
tp56
Ns(I17
I2
tp57
Ns(I14
I1
tp58
Ns(I13
I7
tp59
Ns(I20
I9
tp60
(g10
g11
(I25
I33
I224
I255
tp61
Rp62
tp63
s(I19
I3
tp64
(g10
g11
(I198
I43
I215
I255
tp65
Rp66
tp67
s(I18
I9
tp68
(g10
g11
(I25
I32
I199
I255
tp69
Rp70
tp71
s(I0
I4
tp72
Ns(I15
I4
tp73
Ns(I20
I4
tp74
(g10
g11
(I209
I241
I42
I255
tp75
Rp76
tp77
s(I1
I1
tp78
Ns(I3
I2
tp79
Ns(I2
I6
tp80
Ns(I8
I2
tp81
Ns(I4
I5
tp82
Ns(I9
I3
tp83
Ns(I6
I0
tp84
Ns(I11
I0
tp85
Ns(I7
I5
tp86
Ns(I16
I5
tp87
Ns(I14
I2
tp88
Ns(I0
I1
tp89
Ns(I3
I1
tp90
Ns(I9
I9
tp91
Ns(I7
I8
tp92
Ns(I14
I8
tp93
Ns(I13
I0
tp94
Ns(I12
I8
tp95
Ns(I19
I8
tp96
(g10
g11
(I20
I158
I70
I255
tp97
Rp98
tp99
s(I18
I0
tp100
(g10
g11
(I25
I195
I66
I255
tp101
Rp102
tp103
s(I17
I8
tp104
(g10
g11
(I251
I36
I182
I255
tp105
Rp106
tp107
s(I20
I3
tp108
(g10
g11
(I195
I22
I25
I255
tp109
Rp110
tp111
s(I21
I2
tp112
(g10
g11
(I195
I22
I25
I255
tp113
Rp114
tp115
s(I2
I1
tp116
Ns(I8
I9
tp117
Ns(I9
I4
tp118
Ns(I5
I1
tp119
Ns(I10
I3
tp120
Ns(I7
I2
tp121
Ns(I12
I2
tp122
Ns(I17
I6
tp123
(g10
g11
(I232
I22
I23
I255
tp124
Rp125
tp126
s(I14
I5
tp127
Ns(I13
I3
tp128
Ns(I19
I7
tp129
(g10
g11
(I229
I22
I20
I255
tp130
Rp131
tp132
s(I18
I5
tp133
(g10
g11
(I232
I22
I23
I255
tp134
Rp135
tp136
s(I16
I4
tp137
Ns(I15
I0
tp138
Ns(I21
I8
tp139
(g10
g11
(I29
I33
I216
I255
tp140
Rp141
tp142
s(I20
I0
tp143
(g10
g11
(I23
I30
I248
I255
tp144
Rp145
tp146
s(I1
I5
tp147
Ns(I21
I5
tp148
(g10
g11
(I184
I238
I36
I255
tp149
Rp150
tp151
s(I3
I6
tp152
Ns(I2
I2
tp153
Ns(I8
I6
tp154
Ns(I4
I1
tp155
Ns(I10
I9
tp156
Ns(I9
I7
tp157
Ns(I6
I4
tp158
Ns(I5
I4
tp159
Ns(I11
I4
tp160
Ns(I10
I4
tp161
Ns(I7
I1
tp162
Ns(I12
I7
tp163
Ns(I11
I9
tp164
Ns(I17
I1
tp165
Ns(I14
I6
tp166
Ns(I13
I6
tp167
Ns(I19
I2
tp168
Ns(I18
I6
tp169
(g10
g11
(I232
I22
I23
I255
tp170
Rp171
tp172
s(I0
I5
tp173
Ns(I15
I7
tp174
Ns(I20
I5
tp175
(g10
g11
(I209
I241
I42
I255
tp176
Rp177
tp178
s(I1
I0
tp179
Ns(I0
I8
tp180
Ns(I3
I5
tp181
Ns(I2
I7
tp182
Ns(I8
I3
tp183
Ns(I4
I6
tp184
Ns(I9
I2
tp185
Ns(I6
I1
tp186
Ns(I5
I7
tp187
Ns(I11
I3
tp188
Ns(I7
I4
tp189
Ns(I12
I4
tp190
Ns(I15
I9
tp191
(g10
g11
(I25
I32
I199
I255
tp192
Rp193
tp194
s(I14
I3
tp195
Ns(I13
I9
tp196
Ns(I19
I1
tp197
(g10
g11
(I25
I195
I66
I255
tp198
Rp199
tp200
s(I0
I2
tp201
Ns(I1
I3
tp202
Ns(I4
I8
tp203
Ns(I3
I0
tp204
Ns(I2
I8
tp205
Ns(I9
I8
tp206
Ns(I8
I0
tp207
Ns(I6
I2
tp208
Ns(I14
I9
tp209
Ns(I12
I9
tp210
Ns(I18
I1
tp211
Ns(I16
I0
tp212
Ns(I21
I1
tp213
(g10
g11
(I23
I39
I242
I255
tp214
Rp215
tp216
s(I5
I0
tp217
Ns(I10
I0
tp218
Ns(I12
I3
tp219
Ns(I17
I5
tp220
(g10
g11
(I10
I255
I200
I255
tp221
Rp222
tp223
s(I7
I6
tp224
Ns(I13
I2
tp225
Ns(I19
I6
tp226
(g10
g11
(I212
I144
I13
I255
tp227
Rp228
tp229
s(I18
I2
tp230
Ns(I15
I3
tp231
Ns(I20
I1
tp232
(g10
g11
(I23
I39
I242
I255
tp233
Rp234
tp235
s(I1
I4
tp236
Ns(I16
I2
tp237
Ns(I21
I4
tp238
(g10
g11
(I184
I238
I36
I255
tp239
Rp240
tp241
s(I3
I9
tp242
Ns(I2
I3
tp243
Ns(I1
I9
tp244
Ns(I8
I7
tp245
Ns(I4
I2
tp246
Ns(I9
I6
tp247
Ns(I6
I5
tp248
Ns(I5
I3
tp249
Ns(I11
I7
tp250
Ns(I10
I5
tp251
Ns(I7
I0
tp252
Ns(I6
I8
tp253
Ns(I12
I0
tp254
Ns(I11
I8
tp255
Ns(I17
I0
tp256
Ns(I16
I8
tp257
(g10
g11
(I251
I36
I182
I255
tp258
Rp259
tp260
s(I14
I7
tp261
Ns(I13
I5
tp262
Ns(I19
I5
tp263
(g10
g11
(I212
I144
I13
I255
tp264
Rp265
tp266
s(I18
I7
tp267
(g10
g11
(I20
I158
I70
I255
tp268
Rp269
tp270
s(I0
I6
tp271
Ns(I15
I6
tp272
Ns(I20
I6
tp273
(g10
g11
(I229
I22
I20
I255
tp274
Rp275
tp276
s(I1
I7
tp277
Ns(I0
I9
tp278
Ns(I21
I7
tp279
(g10
g11
(I235
I25
I22
I255
tp280
Rp281
tp282
s(I3
I4
tp283
Ns(I2
I4
tp284
Ns(I8
I4
tp285
Ns(I5
I9
tp286
Ns(I4
I7
tp287
Ns(I9
I1
tp288
Ns(I6
I6
tp289
Ns(I5
I6
tp290
Ns(I11
I2
tp291
Ns(I10
I6
tp292
Ns(I7
I7
tp293
Ns(I12
I5
tp294
Ns(I17
I3
tp295
Ns(I15
I8
tp296
Ns(I14
I0
tp297
Ns(I13
I8
tp298
Ns(I20
I8
tp299
(g10
g11
(I29
I33
I216
I255
tp300
Rp301
tp302
s(I19
I0
tp303
(g10
g11
(I23
I30
I248
I255
tp304
Rp305
tp306
s(I18
I8
tp307
(g10
g11
(I251
I36
I182
I255
tp308
Rp309
tp310
s(I0
I3
tp311
Ns(I15
I5
tp312
Ns(I1
I2
tp313
Ns(I16
I1
tp314
Ns(I4
I9
tp315
Ns(I3
I3
tp316
Ns(I2
I9
tp317
Ns(I8
I1
tp318
Ns(I4
I4
tp319
Ns(I6
I3
tp320
Ns(I11
I1
tp321
Ns(I16
I7
tp322
Ns(I0
I0
tp323
Ns(I21
I0
tp324
(g10
g11
(I23
I30
I248
I255
tp325
Rp326
tp327
s(I10
I1
tp328
Ns(I17
I4
tp329
(g10
g11
(I10
I255
I200
I255
tp330
Rp331
tp332
s(I7
I9
tp333
Ns(I13
I1
tp334
Ns(I19
I9
tp335
(g10
g11
(I25
I33
I224
I255
tp336
Rp337
tp338
s(I18
I3
tp339
(g10
g11
(I198
I43
I215
I255
tp340
Rp341
tp342
s(I17
I9
tp343
(g10
g11
(I25
I32
I199
I255
tp344
Rp345
tp346
s(I15
I2
tp347
Ns(I20
I2
tp348
Ns(I21
I3
tp349
Ns(I3
I8
tp350
Ns(I2
I0
tp351
Ns(I1
I8
tp352
Ns(I8
I8
tp353
Ns(I4
I3
tp354
Ns(I9
I5
tp355
Ns(I5
I2
tp356
Ns(I11
I6
tp357
Ns(I10
I2
tp358
NssS'time'
p359
F1390395167.201
s.(dp0
S'trigger'
p1
S'7'
p2
sS'matrix'
p3
(dp4
(I7
I3
tp5
Ns(I6
I9
tp6
Ns(I12
I1
tp7
Ns(I16
I6
tp8
Ns(I16
I9
tp9
(S'block'
p10
cpygame
__color_constructor
p11
(I25
I32
I199
I255
tp12
Rp13
tp14
s(I14
I4
tp15
Ns(I13
I4
tp16
Ns(I19
I4
tp17
(g10
g11
(I212
I144
I13
I255
tp18
Rp19
tp20
s(I18
I4
tp21
(g10
g11
(I10
I255
I200
I255
tp22
Rp23
tp24
s(I0
I7
tp25
Ns(I15
I1
tp26
Ns(I21
I9
tp27
(g10
g11
(I9
I225
I210
I255
tp28
Rp29
tp30
s(I20
I7
tp31
(g10
g11
(I229
I22
I20
I255
tp32
Rp33
tp34
s(I1
I6
tp35
Ns(I21
I6
tp36
(g10
g11
(I235
I25
I22
I255
tp37
Rp38
tp39
s(I3
I7
tp40
Ns(I2
I5
tp41
Ns(I8
I5
tp42
Ns(I5
I8
tp43
Ns(I4
I0
tp44
Ns(I10
I8
tp45
Ns(I9
I0
tp46
Ns(I6
I7
tp47
Ns(I5
I5
tp48
Ns(I11
I5
tp49
Ns(I10
I7
tp50
Ns(I16
I3
tp51
Ns(I17
I7
tp52
(g10
g11
(I251
I36
I182
I255
tp53
Rp54
tp55
s(I12
I6
tp56
Ns(I8
I8
tp57
Ns(I17
I2
tp58
(g10
g11
(I194
I43
I181
I255
tp59
Rp60
tp61
s(I14
I1
tp62
Ns(I13
I7
tp63
Ns(I20
I9
tp64
(g10
g11
(I25
I33
I224
I255
tp65
Rp66
tp67
s(I19
I3
tp68
(g10
g11
(I198
I43
I215
I255
tp69
Rp70
tp71
s(I18
I9
tp72
(g10
g11
(I25
I32
I199
I255
tp73
Rp74
tp75
s(I0
I4
tp76
Ns(I15
I4
tp77
Ns(I20
I4
tp78
(g10
g11
(I209
I241
I42
I255
tp79
Rp80
tp81
s(I1
I1
tp82
Ns(I3
I2
tp83
Ns(I2
I6
tp84
Ns(I8
I2
tp85
Ns(I4
I5
tp86
Ns(I9
I3
tp87
Ns(I6
I0
tp88
Ns(I11
I0
tp89
Ns(I7
I5
tp90
Ns(I7
I0
tp91
Ns(I14
I2
tp92
Ns(I0
I1
tp93
Ns(I3
I1
tp94
Ns(I9
I9
tp95
Ns(I7
I8
tp96
Ns(I14
I8
tp97
Ns(I13
I0
tp98
Ns(I12
I8
tp99
Ns(I19
I8
tp100
(g10
g11
(I20
I158
I70
I255
tp101
Rp102
tp103
s(I18
I0
tp104
(g10
g11
(I25
I195
I66
I255
tp105
Rp106
tp107
s(I17
I8
tp108
(g10
g11
(I251
I36
I182
I255
tp109
Rp110
tp111
s(I20
I3
tp112
(g10
g11
(I195
I22
I25
I255
tp113
Rp114
tp115
s(I21
I2
tp116
(g10
g11
(I195
I22
I25
I255
tp117
Rp118
tp119
s(I2
I1
tp120
Ns(I8
I9
tp121
Ns(I9
I4
tp122
Ns(I5
I1
tp123
Ns(I10
I3
tp124
Ns(I7
I2
tp125
Ns(I12
I2
tp126
Ns(I17
I6
tp127
(g10
g11
(I232
I22
I23
I255
tp128
Rp129
tp130
s(I14
I5
tp131
Ns(I13
I3
tp132
Ns(I19
I7
tp133
(g10
g11
(I229
I22
I20
I255
tp134
Rp135
tp136
s(I18
I5
tp137
(g10
g11
(I232
I22
I23
I255
tp138
Rp139
tp140
s(I7
I1
tp141
Ns(I15
I0
tp142
Ns(I21
I8
tp143
(g10
g11
(I29
I33
I216
I255
tp144
Rp145
tp146
s(I20
I0
tp147
(g10
g11
(I23
I30
I248
I255
tp148
Rp149
tp150
s(I1
I5
tp151
Ns(I21
I5
tp152
(g10
g11
(I184
I238
I36
I255
tp153
Rp154
tp155
s(I3
I6
tp156
Ns(I2
I2
tp157
Ns(I8
I6
tp158
Ns(I4
I1
tp159
Ns(I10
I9
tp160
Ns(I9
I7
tp161
Ns(I6
I4
tp162
Ns(I5
I4
tp163
Ns(I11
I4
tp164
Ns(I10
I4
tp165
Ns(I16
I4
tp166
Ns(I12
I7
tp167
Ns(I11
I9
tp168
Ns(I17
I1
tp169
Ns(I14
I6
tp170
Ns(I13
I6
tp171
Ns(I19
I2
tp172
(g10
g11
(I194
I43
I181
I255
tp173
Rp174
tp175
s(I18
I6
tp176
(g10
g11
(I232
I22
I23
I255
tp177
Rp178
tp179
s(I0
I5
tp180
Ns(I15
I7
tp181
Ns(I20
I5
tp182
(g10
g11
(I209
I241
I42
I255
tp183
Rp184
tp185
s(I1
I0
tp186
Ns(I0
I8
tp187
Ns(I3
I5
tp188
Ns(I2
I7
tp189
Ns(I8
I3
tp190
Ns(I4
I6
tp191
Ns(I9
I2
tp192
Ns(I6
I1
tp193
Ns(I5
I7
tp194
Ns(I11
I3
tp195
Ns(I7
I4
tp196
Ns(I12
I4
tp197
Ns(I15
I9
tp198
(g10
g11
(I25
I32
I199
I255
tp199
Rp200
tp201
s(I14
I3
tp202
Ns(I13
I9
tp203
Ns(I19
I1
tp204
(g10
g11
(I25
I195
I66
I255
tp205
Rp206
tp207
s(I0
I2
tp208
Ns(I1
I3
tp209
Ns(I4
I8
tp210
Ns(I3
I0
tp211
Ns(I2
I8
tp212
Ns(I9
I8
tp213
Ns(I8
I0
tp214
Ns(I6
I2
tp215
Ns(I14
I9
tp216
Ns(I12
I9
tp217
Ns(I18
I1
tp218
(g10
g11
(I194
I43
I181
I255
tp219
Rp220
tp221
s(I21
I1
tp222
(g10
g11
(I23
I39
I242
I255
tp223
Rp224
tp225
s(I5
I0
tp226
Ns(I10
I0
tp227
Ns(I12
I3
tp228
Ns(I17
I5
tp229
(g10
g11
(I10
I255
I200
I255
tp230
Rp231
tp232
s(I7
I6
tp233
Ns(I13
I2
tp234
Ns(I19
I6
tp235
(g10
g11
(I212
I144
I13
I255
tp236
Rp237
tp238
s(I18
I2
tp239
(g10
g11
(I194
I43
I181
I255
tp240
Rp241
tp242
s(I15
I3
tp243
Ns(I20
I1
tp244
(g10
g11
(I23
I39
I242
I255
tp245
Rp246
tp247
s(I1
I4
tp248
Ns(I7
I7
tp249
Ns(I21
I4
tp250
(g10
g11
(I184
I238
I36
I255
tp251
Rp252
tp253
s(I3
I9
tp254
Ns(I2
I3
tp255
Ns(I1
I9
tp256
Ns(I8
I7
tp257
Ns(I4
I2
tp258
Ns(I9
I6
tp259
Ns(I6
I5
tp260
Ns(I5
I3
tp261
Ns(I11
I7
tp262
Ns(I10
I5
tp263
Ns(I16
I5
tp264
Ns(I6
I8
tp265
Ns(I12
I0
tp266
Ns(I11
I8
tp267
Ns(I17
I0
tp268
Ns(I16
I8
tp269
(g10
g11
(I251
I36
I182
I255
tp270
Rp271
tp272
s(I14
I7
tp273
Ns(I13
I5
tp274
Ns(I19
I5
tp275
(g10
g11
(I212
I144
I13
I255
tp276
Rp277
tp278
s(I18
I7
tp279
(g10
g11
(I20
I158
I70
I255
tp280
Rp281
tp282
s(I0
I6
tp283
Ns(I15
I6
tp284
Ns(I20
I6
tp285
(g10
g11
(I229
I22
I20
I255
tp286
Rp287
tp288
s(I1
I7
tp289
Ns(I0
I9
tp290
Ns(I21
I7
tp291
(g10
g11
(I235
I25
I22
I255
tp292
Rp293
tp294
s(I3
I4
tp295
Ns(I2
I4
tp296
Ns(I8
I4
tp297
Ns(I5
I9
tp298
Ns(I4
I7
tp299
Ns(I9
I1
tp300
Ns(I6
I6
tp301
Ns(I5
I6
tp302
Ns(I11
I2
tp303
Ns(I10
I6
tp304
Ns(I16
I2
tp305
Ns(I12
I5
tp306
Ns(I17
I3
tp307
Ns(I15
I8
tp308
Ns(I14
I0
tp309
Ns(I13
I8
tp310
Ns(I20
I8
tp311
(g10
g11
(I29
I33
I216
I255
tp312
Rp313
tp314
s(I19
I0
tp315
(g10
g11
(I23
I30
I248
I255
tp316
Rp317
tp318
s(I18
I8
tp319
(g10
g11
(I251
I36
I182
I255
tp320
Rp321
tp322
s(I0
I3
tp323
Ns(I15
I5
tp324
Ns(I1
I2
tp325
Ns(I16
I1
tp326
Ns(I4
I9
tp327
Ns(I3
I3
tp328
Ns(I2
I9
tp329
Ns(I8
I1
tp330
Ns(I4
I4
tp331
Ns(I6
I3
tp332
Ns(I11
I1
tp333
Ns(I16
I7
tp334
Ns(I0
I0
tp335
Ns(I21
I0
tp336
(g10
g11
(I23
I30
I248
I255
tp337
Rp338
tp339
s(I10
I1
tp340
Ns(I17
I4
tp341
(g10
g11
(I10
I255
I200
I255
tp342
Rp343
tp344
s(I7
I9
tp345
Ns(I13
I1
tp346
Ns(I19
I9
tp347
(g10
g11
(I25
I33
I224
I255
tp348
Rp349
tp350
s(I18
I3
tp351
(g10
g11
(I198
I43
I215
I255
tp352
Rp353
tp354
s(I17
I9
tp355
(g10
g11
(I25
I32
I199
I255
tp356
Rp357
tp358
s(I15
I2
tp359
Ns(I20
I2
tp360
Ns(I21
I3
tp361
Ns(I3
I8
tp362
Ns(I2
I0
tp363
Ns(I1
I8
tp364
Ns(I16
I0
tp365
Ns(I4
I3
tp366
Ns(I9
I5
tp367
Ns(I5
I2
tp368
Ns(I11
I6
tp369
Ns(I10
I2
tp370
NssS'time'
p371
F1390395170.789
s.(dp0
S'trigger'
p1
S'1'
p2
sS'matrix'
p3
(dp4
(I7
I3
tp5
Ns(I6
I9
tp6
Ns(I12
I1
tp7
Ns(I16
I6
tp8
Ns(I16
I9
tp9
Ns(I14
I4
tp10
Ns(I13
I4
tp11
Ns(I19
I4
tp12
(S'block'
p13
cpygame
__color_constructor
p14
(I10
I255
I200
I255
tp15
Rp16
tp17
s(I18
I4
tp18
Ns(I0
I7
tp19
Ns(I15
I1
tp20
Ns(I21
I9
tp21
(g13
g14
(I9
I225
I210
I255
tp22
Rp23
tp24
s(I20
I7
tp25
(g13
g14
(I229
I22
I20
I255
tp26
Rp27
tp28
s(I1
I6
tp29
Ns(I21
I6
tp30
(g13
g14
(I235
I25
I22
I255
tp31
Rp32
tp33
s(I3
I7
tp34
Ns(I2
I5
tp35
Ns(I8
I5
tp36
Ns(I5
I8
tp37
Ns(I4
I0
tp38
Ns(I10
I8
tp39
Ns(I9
I0
tp40
Ns(I6
I7
tp41
Ns(I5
I5
tp42
Ns(I11
I5
tp43
Ns(I10
I7
tp44
Ns(I16
I3
tp45
Ns(I17
I7
tp46
Ns(I12
I6
tp47
Ns(I8
I8
tp48
Ns(I17
I2
tp49
Ns(I14
I1
tp50
Ns(I13
I7
tp51
Ns(I20
I9
tp52
(g13
g14
(I25
I33
I224
I255
tp53
Rp54
tp55
s(I19
I3
tp56
Ns(I18
I9
tp57
(g13
g14
(I25
I32
I199
I255
tp58
Rp59
tp60
s(I0
I4
tp61
Ns(I15
I4
tp62
Ns(I20
I4
tp63
(g13
g14
(I209
I241
I42
I255
tp64
Rp65
tp66
s(I1
I1
tp67
Ns(I3
I2
tp68
Ns(I2
I6
tp69
Ns(I8
I2
tp70
Ns(I4
I5
tp71
Ns(I9
I3
tp72
Ns(I6
I0
tp73
Ns(I11
I0
tp74
Ns(I7
I5
tp75
Ns(I7
I0
tp76
Ns(I14
I2
tp77
Ns(I0
I1
tp78
Ns(I3
I1
tp79
Ns(I9
I9
tp80
Ns(I7
I8
tp81
Ns(I14
I8
tp82
Ns(I13
I0
tp83
Ns(I12
I8
tp84
Ns(I19
I8
tp85
(g13
g14
(I251
I36
I182
I255
tp86
Rp87
tp88
s(I18
I0
tp89
Ns(I17
I8
tp90
Ns(I20
I3
tp91
(g13
g14
(I195
I22
I25
I255
tp92
Rp93
tp94
s(I21
I2
tp95
(g13
g14
(I195
I22
I25
I255
tp96
Rp97
tp98
s(I2
I1
tp99
Ns(I8
I9
tp100
Ns(I9
I4
tp101
Ns(I5
I1
tp102
Ns(I10
I3
tp103
Ns(I7
I2
tp104
Ns(I12
I2
tp105
Ns(I17
I6
tp106
Ns(I14
I5
tp107
Ns(I13
I3
tp108
Ns(I19
I7
tp109
(g13
g14
(I251
I36
I182
I255
tp110
Rp111
tp112
s(I18
I5
tp113
Ns(I7
I1
tp114
Ns(I15
I0
tp115
Ns(I21
I8
tp116
(g13
g14
(I29
I33
I216
I255
tp117
Rp118
tp119
s(I20
I0
tp120
(g13
g14
(I23
I30
I248
I255
tp121
Rp122
tp123
s(I1
I5
tp124
Ns(I21
I5
tp125
(g13
g14
(I184
I238
I36
I255
tp126
Rp127
tp128
s(I3
I6
tp129
Ns(I2
I2
tp130
Ns(I8
I6
tp131
Ns(I4
I1
tp132
Ns(I10
I9
tp133
Ns(I9
I7
tp134
Ns(I6
I4
tp135
Ns(I5
I4
tp136
Ns(I11
I4
tp137
Ns(I10
I4
tp138
Ns(I16
I4
tp139
Ns(I12
I7
tp140
Ns(I11
I9
tp141
Ns(I17
I1
tp142
Ns(I14
I6
tp143
Ns(I13
I6
tp144
Ns(I19
I2
tp145
(g13
g14
(I194
I43
I181
I255
tp146
Rp147
tp148
s(I18
I6
tp149
Ns(I0
I5
tp150
Ns(I15
I7
tp151
Ns(I20
I5
tp152
(g13
g14
(I209
I241
I42
I255
tp153
Rp154
tp155
s(I1
I0
tp156
Ns(I0
I8
tp157
Ns(I3
I5
tp158
Ns(I2
I7
tp159
Ns(I8
I3
tp160
Ns(I4
I6
tp161
Ns(I9
I2
tp162
Ns(I6
I1
tp163
Ns(I5
I7
tp164
Ns(I11
I3
tp165
Ns(I7
I4
tp166
Ns(I12
I4
tp167
Ns(I15
I9
tp168
Ns(I14
I3
tp169
Ns(I13
I9
tp170
Ns(I19
I1
tp171
Ns(I0
I2
tp172
Ns(I1
I3
tp173
Ns(I4
I8
tp174
Ns(I3
I0
tp175
Ns(I2
I8
tp176
Ns(I9
I8
tp177
Ns(I8
I0
tp178
Ns(I6
I2
tp179
Ns(I14
I9
tp180
Ns(I12
I9
tp181
Ns(I18
I1
tp182
Ns(I21
I1
tp183
(g13
g14
(I23
I39
I242
I255
tp184
Rp185
tp186
s(I5
I0
tp187
Ns(I10
I0
tp188
Ns(I12
I3
tp189
Ns(I17
I5
tp190
Ns(I7
I6
tp191
Ns(I13
I2
tp192
Ns(I19
I6
tp193
(g13
g14
(I232
I22
I23
I255
tp194
Rp195
tp196
s(I18
I2
tp197
Ns(I15
I3
tp198
Ns(I20
I1
tp199
(g13
g14
(I23
I39
I242
I255
tp200
Rp201
tp202
s(I1
I4
tp203
Ns(I7
I7
tp204
Ns(I21
I4
tp205
(g13
g14
(I184
I238
I36
I255
tp206
Rp207
tp208
s(I3
I9
tp209
Ns(I2
I3
tp210
Ns(I1
I9
tp211
Ns(I8
I7
tp212
Ns(I4
I2
tp213
Ns(I9
I6
tp214
Ns(I6
I5
tp215
Ns(I5
I3
tp216
Ns(I11
I7
tp217
Ns(I10
I5
tp218
Ns(I16
I5
tp219
Ns(I6
I8
tp220
Ns(I12
I0
tp221
Ns(I11
I8
tp222
Ns(I17
I0
tp223
Ns(I16
I8
tp224
Ns(I14
I7
tp225
Ns(I13
I5
tp226
Ns(I19
I5
tp227
(g13
g14
(I10
I255
I200
I255
tp228
Rp229
tp230
s(I18
I7
tp231
Ns(I0
I6
tp232
Ns(I15
I6
tp233
Ns(I20
I6
tp234
(g13
g14
(I229
I22
I20
I255
tp235
Rp236
tp237
s(I1
I7
tp238
Ns(I0
I9
tp239
Ns(I21
I7
tp240
(g13
g14
(I235
I25
I22
I255
tp241
Rp242
tp243
s(I3
I4
tp244
Ns(I2
I4
tp245
Ns(I8
I4
tp246
Ns(I5
I9
tp247
Ns(I4
I7
tp248
Ns(I9
I1
tp249
Ns(I6
I6
tp250
Ns(I5
I6
tp251
Ns(I11
I2
tp252
Ns(I10
I6
tp253
Ns(I16
I2
tp254
Ns(I12
I5
tp255
Ns(I17
I3
tp256
Ns(I15
I8
tp257
Ns(I14
I0
tp258
Ns(I13
I8
tp259
Ns(I20
I8
tp260
(g13
g14
(I29
I33
I216
I255
tp261
Rp262
tp263
s(I19
I0
tp264
Ns(I18
I8
tp265
(g13
g14
(I251
I36
I182
I255
tp266
Rp267
tp268
s(I0
I3
tp269
Ns(I15
I5
tp270
Ns(I1
I2
tp271
Ns(I16
I1
tp272
Ns(I4
I9
tp273
Ns(I3
I3
tp274
Ns(I2
I9
tp275
Ns(I8
I1
tp276
Ns(I4
I4
tp277
Ns(I6
I3
tp278
Ns(I11
I1
tp279
Ns(I16
I7
tp280
Ns(I0
I0
tp281
Ns(I21
I0
tp282
(g13
g14
(I23
I30
I248
I255
tp283
Rp284
tp285
s(I10
I1
tp286
Ns(I17
I4
tp287
Ns(I7
I9
tp288
Ns(I13
I1
tp289
Ns(I19
I9
tp290
(g13
g14
(I25
I32
I199
I255
tp291
Rp292
tp293
s(I18
I3
tp294
Ns(I17
I9
tp295
(g13
g14
(I25
I32
I199
I255
tp296
Rp297
tp298
s(I15
I2
tp299
Ns(I20
I2
tp300
Ns(I21
I3
tp301
Ns(I3
I8
tp302
Ns(I2
I0
tp303
Ns(I1
I8
tp304
Ns(I16
I0
tp305
Ns(I4
I3
tp306
Ns(I9
I5
tp307
Ns(I5
I2
tp308
Ns(I11
I6
tp309
Ns(I10
I2
tp310
NssS'time'
p311
F1390395170.852
s.(dp0
S'trigger'
p1
S'8'
p2
sS'matrix'
p3
(dp4
(I7
I3
tp5
Ns(I6
I9
tp6
Ns(I12
I1
tp7
Ns(I16
I6
tp8
Ns(I16
I9
tp9
Ns(I14
I4
tp10
Ns(I13
I4
tp11
Ns(I19
I4
tp12
(S'block'
p13
cpygame
__color_constructor
p14
(I10
I255
I200
I255
tp15
Rp16
tp17
s(I18
I4
tp18
Ns(I0
I7
tp19
Ns(I15
I1
tp20
Ns(I21
I9
tp21
(g13
g14
(I9
I225
I210
I255
tp22
Rp23
tp24
s(I20
I7
tp25
(g13
g14
(I229
I22
I20
I255
tp26
Rp27
tp28
s(I1
I6
tp29
Ns(I21
I6
tp30
(g13
g14
(I235
I25
I22
I255
tp31
Rp32
tp33
s(I3
I7
tp34
Ns(I2
I5
tp35
Ns(I8
I5
tp36
Ns(I5
I8
tp37
Ns(I4
I0
tp38
Ns(I10
I8
tp39
Ns(I9
I0
tp40
Ns(I6
I7
tp41
Ns(I5
I5
tp42
Ns(I11
I5
tp43
Ns(I10
I7
tp44
Ns(I16
I3
tp45
Ns(I17
I7
tp46
Ns(I12
I6
tp47
Ns(I8
I8
tp48
Ns(I17
I2
tp49
Ns(I14
I1
tp50
Ns(I13
I7
tp51
Ns(I20
I9
tp52
(g13
g14
(I25
I33
I224
I255
tp53
Rp54
tp55
s(I19
I3
tp56
Ns(I18
I9
tp57
(g13
g14
(I25
I32
I199
I255
tp58
Rp59
tp60
s(I0
I4
tp61
Ns(I15
I4
tp62
Ns(I20
I4
tp63
(g13
g14
(I209
I241
I42
I255
tp64
Rp65
tp66
s(I1
I1
tp67
Ns(I3
I2
tp68
Ns(I2
I6
tp69
Ns(I8
I2
tp70
Ns(I4
I5
tp71
Ns(I9
I3
tp72
Ns(I6
I0
tp73
Ns(I11
I0
tp74
Ns(I7
I5
tp75
Ns(I7
I0
tp76
Ns(I14
I2
tp77
Ns(I0
I1
tp78
Ns(I3
I1
tp79
Ns(I9
I9
tp80
Ns(I7
I8
tp81
Ns(I14
I8
tp82
Ns(I13
I0
tp83
Ns(I12
I8
tp84
Ns(I19
I8
tp85
(g13
g14
(I251
I36
I182
I255
tp86
Rp87
tp88
s(I18
I0
tp89
Ns(I17
I8
tp90
Ns(I20
I3
tp91
(g13
g14
(I195
I22
I25
I255
tp92
Rp93
tp94
s(I21
I2
tp95
(g13
g14
(I195
I22
I25
I255
tp96
Rp97
tp98
s(I2
I1
tp99
Ns(I8
I9
tp100
Ns(I9
I4
tp101
Ns(I5
I1
tp102
Ns(I10
I3
tp103
Ns(I7
I2
tp104
Ns(I12
I2
tp105
Ns(I17
I6
tp106
Ns(I14
I5
tp107
Ns(I13
I3
tp108
Ns(I19
I7
tp109
(g13
g14
(I251
I36
I182
I255
tp110
Rp111
tp112
s(I18
I5
tp113
Ns(I7
I1
tp114
Ns(I15
I0
tp115
Ns(I21
I8
tp116
(g13
g14
(I29
I33
I216
I255
tp117
Rp118
tp119
s(I20
I0
tp120
(g13
g14
(I23
I30
I248
I255
tp121
Rp122
tp123
s(I1
I5
tp124
Ns(I21
I5
tp125
(g13
g14
(I184
I238
I36
I255
tp126
Rp127
tp128
s(I3
I6
tp129
Ns(I2
I2
tp130
Ns(I8
I6
tp131
Ns(I4
I1
tp132
Ns(I10
I9
tp133
Ns(I9
I7
tp134
Ns(I6
I4
tp135
Ns(I5
I4
tp136
Ns(I11
I4
tp137
Ns(I10
I4
tp138
Ns(I16
I4
tp139
Ns(I12
I7
tp140
Ns(I11
I9
tp141
Ns(I17
I1
tp142
Ns(I14
I6
tp143
Ns(I13
I6
tp144
Ns(I19
I2
tp145
(g13
g14
(I194
I43
I181
I255
tp146
Rp147
tp148
s(I18
I6
tp149
Ns(I0
I5
tp150
Ns(I15
I7
tp151
Ns(I20
I5
tp152
(g13
g14
(I209
I241
I42
I255
tp153
Rp154
tp155
s(I1
I0
tp156
Ns(I0
I8
tp157
Ns(I3
I5
tp158
Ns(I2
I7
tp159
Ns(I8
I3
tp160
Ns(I4
I6
tp161
Ns(I9
I2
tp162
Ns(I6
I1
tp163
Ns(I5
I7
tp164
Ns(I11
I3
tp165
Ns(I7
I4
tp166
Ns(I12
I4
tp167
Ns(I15
I9
tp168
Ns(I14
I3
tp169
Ns(I13
I9
tp170
Ns(I19
I1
tp171
Ns(I0
I2
tp172
Ns(I1
I3
tp173
Ns(I4
I8
tp174
Ns(I3
I0
tp175
Ns(I2
I8
tp176
Ns(I9
I8
tp177
Ns(I8
I0
tp178
Ns(I6
I2
tp179
Ns(I14
I9
tp180
Ns(I12
I9
tp181
Ns(I18
I1
tp182
Ns(I21
I1
tp183
(g13
g14
(I23
I39
I242
I255
tp184
Rp185
tp186
s(I5
I0
tp187
Ns(I10
I0
tp188
Ns(I12
I3
tp189
Ns(I17
I5
tp190
Ns(I7
I6
tp191
Ns(I13
I2
tp192
Ns(I19
I6
tp193
(g13
g14
(I232
I22
I23
I255
tp194
Rp195
tp196
s(I18
I2
tp197
Ns(I15
I3
tp198
Ns(I20
I1
tp199
(g13
g14
(I23
I39
I242
I255
tp200
Rp201
tp202
s(I1
I4
tp203
Ns(I7
I7
tp204
Ns(I21
I4
tp205
(g13
g14
(I184
I238
I36
I255
tp206
Rp207
tp208
s(I3
I9
tp209
Ns(I2
I3
tp210
Ns(I1
I9
tp211
Ns(I8
I7
tp212
Ns(I4
I2
tp213
Ns(I9
I6
tp214
Ns(I6
I5
tp215
Ns(I5
I3
tp216
Ns(I11
I7
tp217
Ns(I10
I5
tp218
Ns(I16
I5
tp219
Ns(I6
I8
tp220
Ns(I12
I0
tp221
Ns(I11
I8
tp222
Ns(I17
I0
tp223
Ns(I16
I8
tp224
Ns(I14
I7
tp225
Ns(I13
I5
tp226
Ns(I19
I5
tp227
(g13
g14
(I10
I255
I200
I255
tp228
Rp229
tp230
s(I18
I7
tp231
Ns(I0
I6
tp232
Ns(I15
I6
tp233
Ns(I20
I6
tp234
(g13
g14
(I229
I22
I20
I255
tp235
Rp236
tp237
s(I1
I7
tp238
Ns(I0
I9
tp239
Ns(I21
I7
tp240
(g13
g14
(I235
I25
I22
I255
tp241
Rp242
tp243
s(I3
I4
tp244
Ns(I2
I4
tp245
Ns(I8
I4
tp246
Ns(I5
I9
tp247
Ns(I4
I7
tp248
Ns(I9
I1
tp249
Ns(I6
I6
tp250
Ns(I5
I6
tp251
Ns(I11
I2
tp252
Ns(I10
I6
tp253
Ns(I16
I2
tp254
Ns(I12
I5
tp255
Ns(I17
I3
tp256
Ns(I15
I8
tp257
Ns(I14
I0
tp258
Ns(I13
I8
tp259
Ns(I20
I8
tp260
(g13
g14
(I29
I33
I216
I255
tp261
Rp262
tp263
s(I19
I0
tp264
Ns(I18
I8
tp265
(g13
g14
(I251
I36
I182
I255
tp266
Rp267
tp268
s(I0
I3
tp269
Ns(I15
I5
tp270
Ns(I1
I2
tp271
Ns(I16
I1
tp272
Ns(I4
I9
tp273
Ns(I3
I3
tp274
Ns(I2
I9
tp275
Ns(I8
I1
tp276
Ns(I4
I4
tp277
Ns(I6
I3
tp278
Ns(I11
I1
tp279
Ns(I16
I7
tp280
Ns(I0
I0
tp281
Ns(I21
I0
tp282
(g13
g14
(I23
I30
I248
I255
tp283
Rp284
tp285
s(I10
I1
tp286
Ns(I17
I4
tp287
Ns(I7
I9
tp288
Ns(I13
I1
tp289
Ns(I19
I9
tp290
(g13
g14
(I25
I32
I199
I255
tp291
Rp292
tp293
s(I18
I3
tp294
Ns(I17
I9
tp295
(g13
g14
(I25
I32
I199
I255
tp296
Rp297
tp298
s(I15
I2
tp299
Ns(I20
I2
tp300
Ns(I21
I3
tp301
Ns(I3
I8
tp302
Ns(I2
I0
tp303
Ns(I1
I8
tp304
Ns(I16
I0
tp305
Ns(I4
I3
tp306
Ns(I9
I5
tp307
Ns(I5
I2
tp308
Ns(I11
I6
tp309
Ns(I10
I2
tp310
NssS'time'
p311
F1390395171.448
s.